

Microchip MPLAB XC8 Assembler V2.10 build 88905656 
                                                                                               Wed Dec 11 20:53:50 2019

Microchip MPLAB XC8 C Compiler v2.10 (Free license) build 20190730164152 Og1 
     1                           	processor	18F4585
     2                           	fnconf	rparam,??,?,0
     3                           	opt	pw 120
     4                           	opt	flic
     5                           	psect	smallconst,global,reloc=2,class=SMALLCONST,delta=1,noexec
     6                           	psect	cinit,global,reloc=2,class=CODE,delta=1
     7                           	psect	bssCOMRAM,global,class=COMRAM,space=1,delta=1,noexec
     8                           	psect	cstackCOMRAM,global,class=COMRAM,space=1,delta=1,noexec
     9                           	psect	text0,global,reloc=2,class=CODE,delta=1
    10                           	psect	text1,global,reloc=2,class=CODE,delta=1,group=1
    11                           	psect	text2,global,reloc=2,class=CODE,delta=1
    12                           	psect	text3,global,reloc=2,class=CODE,delta=1
    13                           	psect	text4,global,reloc=2,class=CODE,delta=1
    14                           	psect	text5,global,reloc=2,class=CODE,delta=1
    15                           	psect	text6,global,reloc=2,class=CODE,delta=1
    16                           	psect	text7,global,reloc=2,class=CODE,delta=1
    17                           	psect	text8,global,reloc=2,class=CODE,delta=1
    18                           	psect	text9,global,reloc=2,class=CODE,delta=1
    19                           	psect	text10,global,reloc=2,class=CODE,delta=1
    20                           	psect	text11,global,reloc=2,class=CODE,delta=1
    21                           	psect	text12,global,reloc=2,class=CODE,delta=1
    22                           	psect	text13,global,reloc=2,class=CODE,delta=1
    23                           	psect	text14,global,reloc=2,class=CODE,delta=1
    24                           	psect	text15,global,reloc=2,class=CODE,delta=1
    25                           	psect	text16,global,reloc=2,class=CODE,delta=1
    26                           	psect	text17,global,reloc=2,class=CODE,delta=1
    27                           	psect	text18,global,reloc=2,class=CODE,delta=1
    28                           	psect	text19,global,reloc=2,class=CODE,delta=1
    29                           	psect	text20,global,reloc=2,class=CODE,delta=1
    30                           	psect	text21,global,reloc=2,class=CODE,delta=1
    31                           	psect	text22,global,reloc=2,class=CODE,delta=1
    32                           	psect	text23,global,reloc=2,class=CODE,delta=1
    33                           	psect	text24,global,reloc=2,class=CODE,delta=1
    34                           	psect	text25,global,reloc=2,class=CODE,delta=1
    35                           	psect	text26,global,reloc=2,class=CODE,delta=1
    36                           	psect	text27,global,reloc=2,class=CODE,delta=1
    37                           	psect	text28,global,reloc=2,class=CODE,delta=1
    38                           	psect	text29,global,reloc=2,class=CODE,delta=1
    39                           	psect	text30,global,reloc=2,class=CODE,delta=1
    40                           	psect	intcode,global,reloc=2,class=CODE,delta=1
    41                           	psect	intcode_body,global,reloc=2,class=CODE,delta=1
    42                           	psect	text32,global,reloc=2,class=CODE,delta=1
    43                           	psect	text33,global,reloc=2,class=CODE,delta=1
    44                           	psect	text34,global,reloc=2,class=CODE,delta=1
    45                           	psect	text35,global,reloc=2,class=CODE,delta=1
    46                           	psect	intsave_regs,global,class=BIGRAM,space=1,delta=1,noexec
    47                           	psect	rparam,global,class=COMRAM,space=1,delta=1,noexec
    48                           	psect	temp,global,ovrld,common,class=COMRAM,space=1,delta=1
    49  0000                     
    50                           ; Version 2.10
    51                           ; Generated 31/07/2019 GMT
    52                           ; 
    53                           ; Copyright © 2019, Microchip Technology Inc. and its subsidiaries ("Microchip")
    54                           ; All rights reserved.
    55                           ; 
    56                           ; This software is developed by Microchip Technology Inc. and its subsidiaries ("Microch
      +                          ip").
    57                           ; 
    58                           ; Redistribution and use in source and binary forms, with or without modification, are
    59                           ; permitted provided that the following conditions are met:
    60                           ; 
    61                           ;     1. Redistributions of source code must retain the above copyright notice, this lis
      +                          t of
    62                           ;        conditions and the following disclaimer.
    63                           ; 
    64                           ;     2. Redistributions in binary form must reproduce the above copyright notice, this 
      +                          list
    65                           ;        of conditions and the following disclaimer in the documentation and/or other
    66                           ;        materials provided with the distribution.
    67                           ; 
    68                           ;     3. Microchip's name may not be used to endorse or promote products derived from th
      +                          is
    69                           ;        software without specific prior written permission.
    70                           ; 
    71                           ; THIS SOFTWARE IS PROVIDED BY MICROCHIP "AS IS" AND ANY EXPRESS OR IMPLIED WARRANTIES,
    72                           ; INCLUDING, BUT NOT LIMITED TO, THE IMPLIED WARRANTIES OF MERCHANTABILITY AND FITNESS F
      +                          OR
    73                           ; PURPOSE ARE DISCLAIMED.  IN NO EVENT SHALL MICROCHIP BE LIABLE FOR ANY DIRECT, INDIREC
      +                          T,
    74                           ; INCIDENTAL, SPECIAL, EXEMPLARY, OR CONSEQUENTIAL DAMAGES (INCLUDING BUT NOT LIMITED TO
    75                           ; PROCUREMENT OF SUBSTITUTE GOODS OR SERVICES; LOSS OF USE, DATA OR PROFITS; OR BUSINESS
    76                           ; INTERRUPTION) HOWSOEVER CAUSED AND ON ANY THEORY OF LIABILITY, WHETHER IN CONTRACT, ST
      +                          RICT
    77                           ; LIABILITY, OR TORT (INCLUDING NEGLIGENCE OR OTHERWISE) ARISING IN ANY WAY OUT OF THE U
      +                          SE OF
    78                           ; THIS SOFTWARE, EVEN IF ADVISED OF THE POSSIBILITY OF SUCH DAMAGE.
    79                           ; 
    80                           ; 
    81                           ; Code-generator required, PIC18F4585 Definitions
    82                           ; 
    83                           ; SFR Addresses
    84  0000                     _LATBbits	set	3978
    85  0000                     _INTCON2bits	set	4081
    86  0000                     _RCONbits	set	4048
    87  0000                     _TRISBbits	set	3987
    88  0000                     _INTCON3bits	set	4080
    89  0000                     _RCSTAbits	set	4011
    90  0000                     _PORTEbits	set	3972
    91  0000                     _PORTAbits	set	3968
    92  0000                     _INTCONbits	set	4082
    93  0000                     _TRISEbits	set	3990
    94  0000                     _PORTE	set	3972
    95  0000                     _PORTD	set	3971
    96  0000                     _PORTC	set	3970
    97  0000                     _PORTB	set	3969
    98  0000                     _PORTA	set	3968
    99  0000                     _RCREG	set	4014
   100  0000                     _PIR1bits	set	3998
   101  0000                     _TXREG	set	4013
   102  0000                     _TXSTAbits	set	4012
   103  0000                     _SPBRG	set	4015
   104  0000                     _RCSTA	set	4011
   105  0000                     _TXSTA	set	4012
   106  0000                     _PORTDbits	set	3971
   107  0000                     _LATDbits	set	3980
   108  0000                     _TRISDbits	set	3989
   109  0000                     _ADCON1	set	4033
   110  0000                     _CVRCONbits	set	4021
   111  0000                     _CMCON	set	4020
   112  0000                     _OSCCON	set	4051
   113  0000                     _PORTCbits	set	3970
   114  0000                     _TRISAbits	set	3986
   115  0000                     _TRISCbits	set	3988
   116                           
   117                           	psect	smallconst
   118  000D00                     __psmallconst:
   119                           	opt callstack 0
   120  000D00  00                 	db	0
   121  000D01                     STR_2:
   122  000D01  63                 	db	99	;'c'
   123  000D02  6F                 	db	111	;'o'
   124  000D03  6F                 	db	111	;'o'
   125  000D04  72                 	db	114	;'r'
   126  000D05  64                 	db	100	;'d'
   127  000D06  65                 	db	101	;'e'
   128  000D07  6E                 	db	110	;'n'
   129  000D08  61                 	db	97	;'a'
   130  000D09  64                 	db	100	;'d'
   131  000D0A  61                 	db	97	;'a'
   132  000D0B  73                 	db	115	;'s'
   133  000D0C  20                 	db	32
   134  000D0D  66                 	db	102	;'f'
   135  000D0E  75                 	db	117	;'u'
   136  000D0F  65                 	db	101	;'e'
   137  000D10  72                 	db	114	;'r'
   138  000D11  61                 	db	97	;'a'
   139  000D12  20                 	db	32
   140  000D13  64                 	db	100	;'d'
   141  000D14  65                 	db	101	;'e'
   142  000D15  6C                 	db	108	;'l'
   143  000D16  20                 	db	32
   144  000D17  6C                 	db	108	;'l'
   145  000D18  69                 	db	105	;'i'
   146  000D19  6D                 	db	109	;'m'
   147  000D1A  69                 	db	105	;'i'
   148  000D1B  74                 	db	116	;'t'
   149  000D1C  65                 	db	101	;'e'
   150  000D1D  00                 	db	0
   151  000D1E                     STR_1:
   152  000D1E  43                 	db	67	;'C'
   153  000D1F  6F                 	db	111	;'o'
   154  000D20  6D                 	db	109	;'m'
   155  000D21  61                 	db	97	;'a'
   156  000D22  6E                 	db	110	;'n'
   157  000D23  64                 	db	100	;'d'
   158  000D24  6F                 	db	111	;'o'
   159  000D25  20                 	db	32
   160  000D26  6E                 	db	110	;'n'
   161  000D27  6F                 	db	111	;'o'
   162  000D28  20                 	db	32
   163  000D29  72                 	db	114	;'r'
   164  000D2A  65                 	db	101	;'e'
   165  000D2B  63                 	db	99	;'c'
   166  000D2C  6F                 	db	111	;'o'
   167  000D2D  6E                 	db	110	;'n'
   168  000D2E  6F                 	db	111	;'o'
   169  000D2F  63                 	db	99	;'c'
   170  000D30  69                 	db	105	;'i'
   171  000D31  64                 	db	100	;'d'
   172  000D32  6F                 	db	111	;'o'
   173  000D33  00                 	db	0
   174  000D34                     STR_3:
   175  000D34  50                 	db	80	;'P'
   176  000D35  72                 	db	114	;'r'
   177  000D36  6F                 	db	111	;'o'
   178  000D37  63                 	db	99	;'c'
   179  000D38  65                 	db	101	;'e'
   180  000D39  73                 	db	115	;'s'
   181  000D3A  6F                 	db	111	;'o'
   182  000D3B  20                 	db	32
   183  000D3C  63                 	db	99	;'c'
   184  000D3D  6F                 	db	111	;'o'
   185  000D3E  6D                 	db	109	;'m'
   186  000D3F  70                 	db	112	;'p'
   187  000D40  6C                 	db	108	;'l'
   188  000D41  65                 	db	101	;'e'
   189  000D42  74                 	db	116	;'t'
   190  000D43  61                 	db	97	;'a'
   191  000D44  64                 	db	100	;'d'
   192  000D45  6F                 	db	111	;'o'
   193  000D46  00                 	db	0
   194  000D47                     STR_4:
   195  000D47  45                 	db	69	;'E'
   196  000D48  6E                 	db	110	;'n'
   197  000D49  20                 	db	32
   198  000D4A  70                 	db	112	;'p'
   199  000D4B  72                 	db	114	;'r'
   200  000D4C  6F                 	db	111	;'o'
   201  000D4D  63                 	db	99	;'c'
   202  000D4E  65                 	db	101	;'e'
   203  000D4F  73                 	db	115	;'s'
   204  000D50  6F                 	db	111	;'o'
   205  000D51  00                 	db	0
   206  000D52                     STR_5:
   207  000D52  46                 	db	70	;'F'
   208  000D53  61                 	db	97	;'a'
   209  000D54  6C                 	db	108	;'l'
   210  000D55  74                 	db	116	;'t'
   211  000D56  61                 	db	97	;'a'
   212  000D57  20                 	db	32
   213  000D58  44                 	db	68	;'D'
   214  000D59  61                 	db	97	;'a'
   215  000D5A  74                 	db	116	;'t'
   216  000D5B  6F                 	db	111	;'o'
   217  000D5C  00                 	db	0
   218                           
   219                           ; #config settings
   220  000D5D  00                 	db	0	; dummy byte at the end
   221  0000                     
   222                           	psect	cinit
   223  00188A                     __pcinit:
   224                           	opt callstack 0
   225  00188A                     start_initialization:
   226                           	opt callstack 0
   227  00188A                     __initialization:
   228                           	opt callstack 0
   229                           
   230                           ; Clear objects allocated to COMRAM (18 bytes)
   231  00188A  EE00  F025         	lfsr	0,__pbssCOMRAM
   232  00188E  0E12               	movlw	18
   233  001890                     clear_0:
   234  001890  6AEE               	clrf	postinc0,c
   235  001892  06E8               	decf	wreg,f,c
   236  001894  E1FD               	bnz	clear_0
   237  001896                     end_of_initialization:
   238                           	opt callstack 0
   239  001896                     __end_of__initialization:
   240                           	opt callstack 0
   241  001896  9037               	bcf	int$flags,0,c	;clear compiler interrupt flag (level 1)
   242  001898  9237               	bcf	int$flags,1,c	;clear compiler interrupt flag (level 2)
   243  00189A  0E00               	movlw	low (__Lsmallconst shr (0+16))
   244  00189C  6EF8               	movwf	tblptru,c
   245  00189E  0E0D               	movlw	high __Lsmallconst
   246  0018A0  6EF7               	movwf	tblptrh,c
   247  0018A2  0100               	movlb	0
   248  0018A4  EFAF  F006         	goto	_main	;jump to C main() function
   249                           
   250                           	psect	bssCOMRAM
   251  000025                     __pbssCOMRAM:
   252                           	opt callstack 0
   253  000025                     _PosicionY:
   254                           	opt callstack 0
   255  000025                     	ds	2
   256  000027                     _PosicionX:
   257                           	opt callstack 0
   258  000027                     	ds	2
   259  000029                     _YReceive:
   260                           	opt callstack 0
   261  000029                     	ds	2
   262  00002B                     _XReceive:
   263                           	opt callstack 0
   264  00002B                     	ds	2
   265  00002D                     _Y:
   266                           	opt callstack 0
   267  00002D                     	ds	2
   268  00002F                     _X:
   269                           	opt callstack 0
   270  00002F                     	ds	2
   271  000031                     _NoNull:
   272                           	opt callstack 0
   273  000031                     	ds	1
   274  000032                     _AjusteZ:
   275                           	opt callstack 0
   276  000032                     	ds	1
   277  000033                     _TaskReceive:
   278                           	opt callstack 0
   279  000033                     	ds	1
   280  000034                     _BuscandoHomeY:
   281                           	opt callstack 0
   282  000034                     	ds	1
   283  000035                     _BuscandoHomeX:
   284                           	opt callstack 0
   285  000035                     	ds	1
   286  000036                     _RX_Data:
   287                           	opt callstack 0
   288  000036                     	ds	1
   289                           
   290                           	psect	cstackCOMRAM
   291  000001                     __pcstackCOMRAM:
   292                           	opt callstack 0
   293  000001                     i2MOV_R_PASOS_X@posicion:
   294                           	opt callstack 0
   295  000001                     i2MOV_L_PASOS_X@posicion:
   296                           	opt callstack 0
   297  000001                     i2MOV_R_PASOS_Y@posicion:
   298                           	opt callstack 0
   299  000001                     i2MOV_L_PASOS_Y@posicion:
   300                           	opt callstack 0
   301                           
   302                           ; 2 bytes @ 0x0
   303  000001                     	ds	2
   304  000003                     i2MOV_R_PASOS_X@coordenada:
   305                           	opt callstack 0
   306  000003                     i2MOV_L_PASOS_X@coordenada:
   307                           	opt callstack 0
   308  000003                     i2MOV_R_PASOS_Y@coordenada:
   309                           	opt callstack 0
   310  000003                     i2MOV_L_PASOS_Y@coordenada:
   311                           	opt callstack 0
   312                           
   313                           ; 2 bytes @ 0x2
   314  000003                     	ds	2
   315  000005                     i2MOV_R_PASOS_X@i:
   316                           	opt callstack 0
   317  000005                     i2MOV_L_PASOS_X@i:
   318                           	opt callstack 0
   319  000005                     i2MOV_R_PASOS_Y@i:
   320                           	opt callstack 0
   321  000005                     i2MOV_L_PASOS_Y@i:
   322                           	opt callstack 0
   323                           
   324                           ; 1 bytes @ 0x4
   325  000005                     	ds	1
   326  000006                     ?_MOV_R_PASOS_X:
   327                           	opt callstack 0
   328  000006                     ?_MOV_L_PASOS_X:
   329                           	opt callstack 0
   330  000006                     ?_MOV_R_PASOS_Y:
   331                           	opt callstack 0
   332  000006                     ?_MOV_L_PASOS_Y:
   333                           	opt callstack 0
   334  000006                     ?___wmul:
   335                           	opt callstack 0
   336  000006                     SEND_UART@TX_Data:
   337                           	opt callstack 0
   338  000006                     MOV_R_PASOS_X@posicion:
   339                           	opt callstack 0
   340  000006                     MOV_L_PASOS_X@posicion:
   341                           	opt callstack 0
   342  000006                     MOV_R_PASOS_Y@posicion:
   343                           	opt callstack 0
   344  000006                     MOV_L_PASOS_Y@posicion:
   345                           	opt callstack 0
   346  000006                     ___wmul@multiplier:
   347                           	opt callstack 0
   348  000006                     RECEIVE_UART@Cont:
   349                           	opt callstack 0
   350                           
   351                           ; 4 bytes @ 0x5
   352  000006                     	ds	1
   353  000007                     SEND_STRING@PointString:
   354                           	opt callstack 0
   355                           
   356                           ; 2 bytes @ 0x6
   357  000007                     	ds	1
   358  000008                     MOV_R_PASOS_X@coordenada:
   359                           	opt callstack 0
   360  000008                     MOV_L_PASOS_X@coordenada:
   361                           	opt callstack 0
   362  000008                     MOV_R_PASOS_Y@coordenada:
   363                           	opt callstack 0
   364  000008                     MOV_L_PASOS_Y@coordenada:
   365                           	opt callstack 0
   366  000008                     ___wmul@multiplicand:
   367                           	opt callstack 0
   368                           
   369                           ; 2 bytes @ 0x7
   370  000008                     	ds	1
   371  000009                     ??_SEND_STRING:
   372                           
   373                           ; 1 bytes @ 0x8
   374  000009                     	ds	1
   375  00000A                     MOV_R_PASOS_X@i:
   376                           	opt callstack 0
   377  00000A                     MOV_L_PASOS_X@i:
   378                           	opt callstack 0
   379  00000A                     MOV_R_PASOS_Y@i:
   380                           	opt callstack 0
   381  00000A                     MOV_L_PASOS_Y@i:
   382                           	opt callstack 0
   383  00000A                     RECEIVE_STRING@guardarscan:
   384                           	opt callstack 0
   385  00000A                     ___wmul@product:
   386                           	opt callstack 0
   387                           
   388                           ; 2 bytes @ 0x9
   389  00000A                     	ds	1
   390  00000B                     SEND_STRING@i:
   391                           	opt callstack 0
   392                           
   393                           ; 1 bytes @ 0xA
   394  00000B                     	ds	1
   395  00000C                     RECEIVE_STRING@numcaracteres:
   396                           	opt callstack 0
   397                           
   398                           ; 1 bytes @ 0xB
   399  00000C                     	ds	1
   400  00000D                     RECEIVE_STRING@i:
   401                           	opt callstack 0
   402                           
   403                           ; 1 bytes @ 0xC
   404  00000D                     	ds	1
   405  00000E                     ??_main:
   406                           
   407                           ; 1 bytes @ 0xD
   408  00000E                     	ds	2
   409  000010                     main@Ptrcoordenadas:
   410                           	opt callstack 0
   411                           
   412                           ; 2 bytes @ 0xF
   413  000010                     	ds	2
   414  000012                     main@Centenasx:
   415                           	opt callstack 0
   416                           
   417                           ; 2 bytes @ 0x11
   418  000012                     	ds	2
   419  000014                     main@Decenasx:
   420                           	opt callstack 0
   421                           
   422                           ; 2 bytes @ 0x13
   423  000014                     	ds	2
   424  000016                     main@Unidadx:
   425                           	opt callstack 0
   426                           
   427                           ; 2 bytes @ 0x15
   428  000016                     	ds	2
   429  000018                     main@Centenasy:
   430                           	opt callstack 0
   431                           
   432                           ; 2 bytes @ 0x17
   433  000018                     	ds	2
   434  00001A                     main@Decenasy:
   435                           	opt callstack 0
   436                           
   437                           ; 2 bytes @ 0x19
   438  00001A                     	ds	2
   439  00001C                     main@Unidady:
   440                           	opt callstack 0
   441                           
   442                           ; 2 bytes @ 0x1B
   443  00001C                     	ds	2
   444  00001E                     main@Task:
   445                           	opt callstack 0
   446                           
   447                           ; 1 bytes @ 0x1D
   448  00001E                     	ds	1
   449  00001F                     main@Instruccion:
   450                           	opt callstack 0
   451                           
   452                           ; 6 bytes @ 0x1E
   453  00001F                     	ds	6
   454                           
   455 ;;
   456 ;;Main: autosize = 0, tempsize = 2, incstack = 0, save=0
   457 ;;
   458 ;; *************** function _main *****************
   459 ;; Defined at:
   460 ;;		line 28 in file "SPARC_4585.c"
   461 ;; Parameters:    Size  Location     Type
   462 ;;		None
   463 ;; Auto vars:     Size  Location     Type
   464 ;;  Unidady         2   27[COMRAM] unsigned short 
   465 ;;  Decenasy        2   25[COMRAM] unsigned short 
   466 ;;  Centenasy       2   23[COMRAM] unsigned short 
   467 ;;  Unidadx         2   21[COMRAM] unsigned short 
   468 ;;  Decenasx        2   19[COMRAM] unsigned short 
   469 ;;  Centenasx       2   17[COMRAM] unsigned short 
   470 ;;  Ptrcoordenad    2   15[COMRAM] PTR unsigned char 
   471 ;;		 -> main@Instruccion(6), 
   472 ;;  Instruccion     6   30[COMRAM] struct .
   473 ;;  Task            1   29[COMRAM] unsigned char 
   474 ;; Return value:  Size  Location     Type
   475 ;;                  1    wreg      void 
   476 ;; Registers used:
   477 ;;		wreg, fsr2l, fsr2h, status,2, status,0, tblptrl, tblptrh, tblptru, prodl, prodh, cstack
   478 ;; Tracked objects:
   479 ;;		On entry : 0/0
   480 ;;		On exit  : 0/0
   481 ;;		Unchanged: 0/0
   482 ;; Data sizes:     COMRAM   BANK0   BANK1   BANK2   BANK3   BANK4   BANK5   BANK6   BANK7   BANK8   BANK9  BANK10  BANK1
      +1  BANK12
   483 ;;      Params:         0       0       0       0       0       0       0       0       0       0       0       0       
      +0       0
   484 ;;      Locals:        21       0       0       0       0       0       0       0       0       0       0       0       
      +0       0
   485 ;;      Temps:          2       0       0       0       0       0       0       0       0       0       0       0       
      +0       0
   486 ;;      Totals:        23       0       0       0       0       0       0       0       0       0       0       0       
      +0       0
   487 ;;Total ram usage:       23 bytes
   488 ;; Hardware stack levels required when called:    5
   489 ;; This function calls:
   490 ;;		_DOWN_PLATFORM
   491 ;;		_ERROR_FUERA_LIMITE
   492 ;;		_ERROR_LEDS
   493 ;;		_ERROR_NO_COMANDO
   494 ;;		_FALTA_DATO
   495 ;;		_INIT_BUTTONS
   496 ;;		_INIT_DC
   497 ;;		_INIT_GPIO
   498 ;;		_INIT_INT
   499 ;;		_INIT_LEDS
   500 ;;		_INIT_STEP
   501 ;;		_INIT_UART
   502 ;;		_LEDS_OFF
   503 ;;		_MOV_L_PASOS_X
   504 ;;		_MOV_L_PASOS_Y
   505 ;;		_MOV_R_PASOS_X
   506 ;;		_MOV_R_PASOS_Y
   507 ;;		_PROCESO
   508 ;;		_PROCESO_LEDS
   509 ;;		_RECEIVE_STRING
   510 ;;		_RECEIVE_UART
   511 ;;		_TERMINADO
   512 ;;		_TERMINADO_LEDS
   513 ;;		_UP_PLATFORM
   514 ;;		___wmul
   515 ;; This function is called by:
   516 ;;		Startup code after reset
   517 ;; This function uses a non-reentrant model
   518 ;;
   519                           
   520                           	psect	text0
   521  000D5E                     __ptext0:
   522                           	opt callstack 0
   523  000D5E                     _main:
   524                           	opt callstack 26
   525  000D5E                     
   526                           ;SPARC_4585.c: 30:     RCREG = 0;
   527  000D5E  0E00               	movlw	0
   528  000D60  6EAE               	movwf	174,c	;volatile
   529  000D62                     
   530                           ;SPARC_4585.c: 32:     TRISCbits.RC0 = 1;
   531  000D62  8094               	bsf	148,0,c	;volatile
   532  000D64                     
   533                           ;SPARC_4585.c: 33:     TRISAbits.RA4 = 1;
   534  000D64  8892               	bsf	146,4,c	;volatile
   535                           
   536                           ;SPARC_4585.c: 38:     PORTA = 0x00;
   537  000D66  0E00               	movlw	0
   538  000D68  6E80               	movwf	128,c	;volatile
   539                           
   540                           ;SPARC_4585.c: 39:     PORTB = 0x00;
   541  000D6A  0E00               	movlw	0
   542  000D6C  6E81               	movwf	129,c	;volatile
   543                           
   544                           ;SPARC_4585.c: 40:     PORTC = 0x00;
   545  000D6E  0E00               	movlw	0
   546  000D70  6E82               	movwf	130,c	;volatile
   547                           
   548                           ;SPARC_4585.c: 41:     PORTD = 0x00;
   549  000D72  0E00               	movlw	0
   550  000D74  6E83               	movwf	131,c	;volatile
   551                           
   552                           ;SPARC_4585.c: 42:     PORTE = 0x00;
   553  000D76  0E00               	movlw	0
   554  000D78  6E84               	movwf	132,c	;volatile
   555  000D7A                     
   556                           ;SPARC_4585.c: 47:     INIT_GPIO();
   557  000D7A  ECCC  F00C         	call	_INIT_GPIO	;wreg free
   558                           
   559                           ;SPARC_4585.c: 48:     INIT_INT();
   560  000D7E  EC33  F00C         	call	_INIT_INT	;wreg free
   561  000D82                     
   562                           ;SPARC_4585.c: 49:     INIT_UART();
   563  000D82  ECBC  F00C         	call	_INIT_UART	;wreg free
   564  000D86                     
   565                           ;SPARC_4585.c: 50:     INIT_STEP();
   566  000D86  ECC5  F00C         	call	_INIT_STEP	;wreg free
   567  000D8A                     
   568                           ;SPARC_4585.c: 51:     INIT_BUTTONS();
   569  000D8A  ECEB  F00C         	call	_INIT_BUTTONS	;wreg free
   570  000D8E                     
   571                           ;SPARC_4585.c: 52:     INIT_DC();
   572  000D8E  ECE7  F00C         	call	_INIT_DC	;wreg free
   573  000D92                     
   574                           ;SPARC_4585.c: 53:     INIT_LEDS();
   575  000D92  ECE3  F00C         	call	_INIT_LEDS	;wreg free
   576  000D96                     
   577                           ;SPARC_4585.c: 55:     TRISEbits.RE0 = 0;
   578  000D96  9096               	bcf	150,0,c	;volatile
   579                           
   580                           ;SPARC_4585.c: 68:     while (BuscandoHomeX == 0 || BuscandoHomeY == 0) {
   581  000D98  EFF4  F006         	goto	l1908
   582  000D9C                     l1900:
   583                           
   584                           ;SPARC_4585.c: 70:             MOV_L_PASOS_X(300, 0);
   585  000D9C  0E01               	movlw	1
   586  000D9E  6E07               	movwf	(MOV_L_PASOS_X@posicion+1)^0,c
   587  000DA0  0E2C               	movlw	44
   588  000DA2  6E06               	movwf	MOV_L_PASOS_X@posicion^0,c
   589  000DA4  0E00               	movlw	0
   590  000DA6  6E09               	movwf	(MOV_L_PASOS_X@coordenada+1)^0,c
   591  000DA8  0E00               	movlw	0
   592  000DAA  6E08               	movwf	MOV_L_PASOS_X@coordenada^0,c
   593  000DAC  EC26  F00B         	call	_MOV_L_PASOS_X	;wreg free
   594  000DB0                     l1902:
   595                           
   596                           ;SPARC_4585.c: 69:         while (BuscandoHomeX == 0) {
   597  000DB0  5035               	movf	_BuscandoHomeX^0,w,c
   598  000DB2  B4D8               	btfsc	status,2,c
   599  000DB4  EFDE  F006         	goto	u1051
   600  000DB8  EFE0  F006         	goto	u1050
   601  000DBC                     u1051:
   602  000DBC  EFCE  F006         	goto	l1900
   603  000DC0                     u1050:
   604  000DC0  EFEC  F006         	goto	l1906
   605  000DC4                     l1904:
   606                           
   607                           ;SPARC_4585.c: 73:             MOV_L_PASOS_Y(300, 0);
   608  000DC4  0E01               	movlw	1
   609  000DC6  6E07               	movwf	(MOV_L_PASOS_Y@posicion+1)^0,c
   610  000DC8  0E2C               	movlw	44
   611  000DCA  6E06               	movwf	MOV_L_PASOS_Y@posicion^0,c
   612  000DCC  0E00               	movlw	0
   613  000DCE  6E09               	movwf	(MOV_L_PASOS_Y@coordenada+1)^0,c
   614  000DD0  0E00               	movlw	0
   615  000DD2  6E08               	movwf	MOV_L_PASOS_Y@coordenada^0,c
   616  000DD4  ECEA  F00A         	call	_MOV_L_PASOS_Y	;wreg free
   617  000DD8                     l1906:
   618                           
   619                           ;SPARC_4585.c: 72:         while (BuscandoHomeY == 0) {
   620  000DD8  5034               	movf	_BuscandoHomeY^0,w,c
   621  000DDA  B4D8               	btfsc	status,2,c
   622  000DDC  EFF2  F006         	goto	u1061
   623  000DE0  EFF4  F006         	goto	u1060
   624  000DE4                     u1061:
   625  000DE4  EFE2  F006         	goto	l1904
   626  000DE8                     u1060:
   627  000DE8                     l1908:
   628                           
   629                           ;SPARC_4585.c: 68:     while (BuscandoHomeX == 0 || BuscandoHomeY == 0) {
   630  000DE8  5035               	movf	_BuscandoHomeX^0,w,c
   631  000DEA  B4D8               	btfsc	status,2,c
   632  000DEC  EFFA  F006         	goto	u1071
   633  000DF0  EFFC  F006         	goto	u1070
   634  000DF4                     u1071:
   635  000DF4  EFD8  F006         	goto	l1902
   636  000DF8                     u1070:
   637  000DF8  5034               	movf	_BuscandoHomeY^0,w,c
   638  000DFA  B4D8               	btfsc	status,2,c
   639  000DFC  EF02  F007         	goto	u1081
   640  000E00  EF04  F007         	goto	u1080
   641  000E04                     u1081:
   642  000E04  EFD8  F006         	goto	l1902
   643  000E08                     u1080:
   644  000E08                     
   645                           ;SPARC_4585.c: 77:     INTCONbits.GIE = 0;
   646  000E08  9EF2               	bcf	242,7,c	;volatile
   647                           
   648                           ;SPARC_4585.c: 79:     while (AjusteZ == 0) {
   649  000E0A  EF14  F007         	goto	l311
   650  000E0E                     l1912:
   651                           
   652                           ;SPARC_4585.c: 80:         UP_PLATFORM();
   653  000E0E  EC54  F00C         	call	_UP_PLATFORM	;wreg free
   654                           
   655                           ;SPARC_4585.c: 81:         DOWN_PLATFORM();
   656  000E12  EC62  F00C         	call	_DOWN_PLATFORM	;wreg free
   657  000E16                     
   658                           ;SPARC_4585.c: 82:         if (PORTAbits.RA5 == 1) {
   659  000E16  AA80               	btfss	128,5,c	;volatile
   660  000E18  EF10  F007         	goto	u1091
   661  000E1C  EF12  F007         	goto	u1090
   662  000E20                     u1091:
   663  000E20  EF14  F007         	goto	l311
   664  000E24                     u1090:
   665  000E24                     
   666                           ;SPARC_4585.c: 83:             AjusteZ = 1;
   667  000E24  0E01               	movlw	1
   668  000E26  6E32               	movwf	_AjusteZ^0,c
   669  000E28                     l311:
   670                           
   671                           ;SPARC_4585.c: 79:     while (AjusteZ == 0) {
   672  000E28  5032               	movf	_AjusteZ^0,w,c
   673  000E2A  B4D8               	btfsc	status,2,c
   674  000E2C  EF1A  F007         	goto	u1101
   675  000E30  EF1C  F007         	goto	u1100
   676  000E34                     u1101:
   677  000E34  EF07  F007         	goto	l1912
   678  000E38                     u1100:
   679  000E38  EFDB  F007         	goto	l2016
   680  000E3C                     l317:
   681                           
   682                           ;SPARC_4585.c: 89:             PORTEbits.RE0 = 0;
   683  000E3C  9084               	bcf	132,0,c	;volatile
   684  000E3E                     
   685                           ;SPARC_4585.c: 90:             Task = RECEIVE_UART();
   686  000E3E  ECD8  F00B         	call	_RECEIVE_UART	;wreg free
   687  000E42  6E1E               	movwf	main@Task^0,c
   688  000E44                     
   689                           ;SPARC_4585.c: 92:             if (Task != 72 && Task != 71 && Task != 84 && Task != 83)
      +                           {
   690  000E44  0E48               	movlw	72
   691  000E46  181E               	xorwf	main@Task^0,w,c
   692  000E48  B4D8               	btfsc	status,2,c
   693  000E4A  EF29  F007         	goto	u1111
   694  000E4E  EF2B  F007         	goto	u1110
   695  000E52                     u1111:
   696  000E52  EF4C  F007         	goto	l1934
   697  000E56                     u1110:
   698  000E56  0E47               	movlw	71
   699  000E58  181E               	xorwf	main@Task^0,w,c
   700  000E5A  B4D8               	btfsc	status,2,c
   701  000E5C  EF32  F007         	goto	u1121
   702  000E60  EF34  F007         	goto	u1120
   703  000E64                     u1121:
   704  000E64  EF4C  F007         	goto	l1934
   705  000E68                     u1120:
   706  000E68  0E54               	movlw	84
   707  000E6A  181E               	xorwf	main@Task^0,w,c
   708  000E6C  B4D8               	btfsc	status,2,c
   709  000E6E  EF3B  F007         	goto	u1131
   710  000E72  EF3D  F007         	goto	u1130
   711  000E76                     u1131:
   712  000E76  EF4C  F007         	goto	l1934
   713  000E7A                     u1130:
   714  000E7A  0E53               	movlw	83
   715  000E7C  181E               	xorwf	main@Task^0,w,c
   716  000E7E  B4D8               	btfsc	status,2,c
   717  000E80  EF44  F007         	goto	u1141
   718  000E84  EF46  F007         	goto	u1140
   719  000E88                     u1141:
   720  000E88  EF4C  F007         	goto	l1934
   721  000E8C                     u1140:
   722  000E8C                     
   723                           ;SPARC_4585.c: 93:                 ERROR_NO_COMANDO();
   724  000E8C  EC97  F00C         	call	_ERROR_NO_COMANDO	;wreg free
   725  000E90                     
   726                           ;SPARC_4585.c: 94:                 LEDS_OFF();
   727  000E90  ECDF  F00C         	call	_LEDS_OFF	;wreg free
   728  000E94                     
   729                           ;SPARC_4585.c: 95:                 ERROR_LEDS();
   730  000E94  ECEF  F00C         	call	_ERROR_LEDS	;wreg free
   731  000E98                     l1934:
   732                           
   733                           ;SPARC_4585.c: 97:             if (Task == 72) {
   734  000E98  0E48               	movlw	72
   735  000E9A  181E               	xorwf	main@Task^0,w,c
   736  000E9C  A4D8               	btfss	status,2,c
   737  000E9E  EF53  F007         	goto	u1151
   738  000EA2  EF55  F007         	goto	u1150
   739  000EA6                     u1151:
   740  000EA6  EF80  F007         	goto	l1960
   741  000EAA                     u1150:
   742  000EAA                     
   743                           ;SPARC_4585.c: 98:                 LEDS_OFF();
   744  000EAA  ECDF  F00C         	call	_LEDS_OFF	;wreg free
   745  000EAE                     
   746                           ;SPARC_4585.c: 99:                 PROCESO();
   747  000EAE  EC7D  F00C         	call	_PROCESO	;wreg free
   748  000EB2                     
   749                           ;SPARC_4585.c: 100:                 PROCESO_LEDS();
   750  000EB2  ECDB  F00C         	call	_PROCESO_LEDS	;wreg free
   751  000EB6                     
   752                           ;SPARC_4585.c: 101:                 PORTEbits.RE0 = 0;
   753  000EB6  9084               	bcf	132,0,c	;volatile
   754  000EB8                     
   755                           ;SPARC_4585.c: 102:                 PosicionX = MOV_L_PASOS_X(PosicionX, 0);
   756  000EB8  C027  F006         	movff	_PosicionX,MOV_L_PASOS_X@posicion
   757  000EBC  C028  F007         	movff	_PosicionX+1,MOV_L_PASOS_X@posicion+1
   758  000EC0  0E00               	movlw	0
   759  000EC2  6E09               	movwf	(MOV_L_PASOS_X@coordenada+1)^0,c
   760  000EC4  0E00               	movlw	0
   761  000EC6  6E08               	movwf	MOV_L_PASOS_X@coordenada^0,c
   762  000EC8  EC26  F00B         	call	_MOV_L_PASOS_X	;wreg free
   763  000ECC  C006  F027         	movff	?_MOV_L_PASOS_X,_PosicionX
   764  000ED0  C007  F028         	movff	?_MOV_L_PASOS_X+1,_PosicionX+1
   765  000ED4                     
   766                           ;SPARC_4585.c: 103:                 PosicionY = MOV_L_PASOS_Y(PosicionY, 0);
   767  000ED4  C025  F006         	movff	_PosicionY,MOV_L_PASOS_Y@posicion
   768  000ED8  C026  F007         	movff	_PosicionY+1,MOV_L_PASOS_Y@posicion+1
   769  000EDC  0E00               	movlw	0
   770  000EDE  6E09               	movwf	(MOV_L_PASOS_Y@coordenada+1)^0,c
   771  000EE0  0E00               	movlw	0
   772  000EE2  6E08               	movwf	MOV_L_PASOS_Y@coordenada^0,c
   773  000EE4  ECEA  F00A         	call	_MOV_L_PASOS_Y	;wreg free
   774  000EE8  C006  F025         	movff	?_MOV_L_PASOS_Y,_PosicionY
   775  000EEC  C007  F026         	movff	?_MOV_L_PASOS_Y+1,_PosicionY+1
   776  000EF0                     
   777                           ;SPARC_4585.c: 104:                 TERMINADO_LEDS();
   778  000EF0  ECD7  F00C         	call	_TERMINADO_LEDS	;wreg free
   779  000EF4                     
   780                           ;SPARC_4585.c: 105:                 TERMINADO();
   781  000EF4  EC70  F00C         	call	_TERMINADO	;wreg free
   782  000EF8                     
   783                           ;SPARC_4585.c: 106:                 TXSTAbits.TXEN = 0;
   784  000EF8  9AAC               	bcf	172,5,c	;volatile
   785  000EFA                     
   786                           ;SPARC_4585.c: 107:                 RCSTAbits.CREN = 0;
   787  000EFA  98AB               	bcf	171,4,c	;volatile
   788  000EFC                     
   789                           ;SPARC_4585.c: 108:                 TXSTAbits.TXEN = 1;
   790  000EFC  8AAC               	bsf	172,5,c	;volatile
   791  000EFE                     
   792                           ;SPARC_4585.c: 109:                 RCSTAbits.CREN = 1;
   793  000EFE  88AB               	bsf	171,4,c	;volatile
   794  000F00                     l1960:
   795                           
   796                           ;SPARC_4585.c: 111:             if (Task == 71) {
   797  000F00  0E47               	movlw	71
   798  000F02  181E               	xorwf	main@Task^0,w,c
   799  000F04  A4D8               	btfss	status,2,c
   800  000F06  EF87  F007         	goto	u1161
   801  000F0A  EF89  F007         	goto	u1160
   802  000F0E                     u1161:
   803  000F0E  EF96  F007         	goto	l1972
   804  000F12                     u1160:
   805  000F12                     
   806                           ;SPARC_4585.c: 112:                 LEDS_OFF();
   807  000F12  ECDF  F00C         	call	_LEDS_OFF	;wreg free
   808  000F16                     
   809                           ;SPARC_4585.c: 113:                 PORTEbits.RE0 = 0;
   810  000F16  9084               	bcf	132,0,c	;volatile
   811  000F18                     
   812                           ;SPARC_4585.c: 114:                 TaskReceive = 1;
   813  000F18  0E01               	movlw	1
   814  000F1A  6E33               	movwf	_TaskReceive^0,c
   815  000F1C                     
   816                           ;SPARC_4585.c: 115:                 XReceive = 0;
   817  000F1C  0E00               	movlw	0
   818  000F1E  6E2C               	movwf	(_XReceive+1)^0,c
   819  000F20  0E00               	movlw	0
   820  000F22  6E2B               	movwf	_XReceive^0,c
   821  000F24                     
   822                           ;SPARC_4585.c: 116:                 YReceive = 0;
   823  000F24  0E00               	movlw	0
   824  000F26  6E2A               	movwf	(_YReceive+1)^0,c
   825  000F28  0E00               	movlw	0
   826  000F2A  6E29               	movwf	_YReceive^0,c
   827  000F2C                     l1972:
   828                           
   829                           ;SPARC_4585.c: 118:             if (Task == 84) {
   830  000F2C  0E54               	movlw	84
   831  000F2E  181E               	xorwf	main@Task^0,w,c
   832  000F30  A4D8               	btfss	status,2,c
   833  000F32  EF9D  F007         	goto	u1171
   834  000F36  EF9F  F007         	goto	u1170
   835  000F3A                     u1171:
   836  000F3A  EFC3  F007         	goto	l2002
   837  000F3E                     u1170:
   838  000F3E                     
   839                           ;SPARC_4585.c: 119:                 LEDS_OFF();
   840  000F3E  ECDF  F00C         	call	_LEDS_OFF	;wreg free
   841  000F42                     
   842                           ;SPARC_4585.c: 120:                 PROCESO();
   843  000F42  EC7D  F00C         	call	_PROCESO	;wreg free
   844  000F46                     
   845                           ;SPARC_4585.c: 121:                 PROCESO_LEDS();
   846  000F46  ECDB  F00C         	call	_PROCESO_LEDS	;wreg free
   847  000F4A                     
   848                           ;SPARC_4585.c: 122:                 PORTEbits.RE0 = 0;
   849  000F4A  9084               	bcf	132,0,c	;volatile
   850  000F4C                     
   851                           ;SPARC_4585.c: 123:                 _delay((unsigned long)((50)*(4000000/4000.0)));
   852  000F4C  0E41               	movlw	65
   853  000F4E  6E0E               	movwf	??_main^0,c
   854  000F50  0EEE               	movlw	238
   855  000F52                     u1407:
   856  000F52  2EE8               	decfsz	wreg,f,c
   857  000F54  D7FE               	bra	u1407
   858  000F56  2E0E               	decfsz	??_main^0,f,c
   859  000F58  D7FC               	bra	u1407
   860  000F5A  D000               	nop2	
   861  000F5C                     
   862                           ;SPARC_4585.c: 124:                 PORTEbits.RE0 = 1;
   863  000F5C  8084               	bsf	132,0,c	;volatile
   864  000F5E                     
   865                           ;SPARC_4585.c: 125:                 _delay((unsigned long)((500)*(4000000/4000.0)));
   866  000F5E  0E03               	movlw	3
   867  000F60  6E0F               	movwf	(??_main+1)^0,c
   868  000F62  0E8A               	movlw	138
   869  000F64  6E0E               	movwf	??_main^0,c
   870  000F66  0E56               	movlw	86
   871  000F68                     u1417:
   872  000F68  2EE8               	decfsz	wreg,f,c
   873  000F6A  D7FE               	bra	u1417
   874  000F6C  2E0E               	decfsz	??_main^0,f,c
   875  000F6E  D7FC               	bra	u1417
   876  000F70  2E0F               	decfsz	(??_main+1)^0,f,c
   877  000F72  D7FA               	bra	u1417
   878  000F74                     
   879                           ;SPARC_4585.c: 126:                 PORTEbits.RE0 = 0;
   880  000F74  9084               	bcf	132,0,c	;volatile
   881  000F76                     
   882                           ;SPARC_4585.c: 127:                 TERMINADO_LEDS();
   883  000F76  ECD7  F00C         	call	_TERMINADO_LEDS	;wreg free
   884  000F7A                     
   885                           ;SPARC_4585.c: 128:                 TERMINADO();
   886  000F7A  EC70  F00C         	call	_TERMINADO	;wreg free
   887  000F7E                     
   888                           ;SPARC_4585.c: 129:                 TXSTAbits.TXEN = 0;
   889  000F7E  9AAC               	bcf	172,5,c	;volatile
   890  000F80                     
   891                           ;SPARC_4585.c: 130:                 RCSTAbits.CREN = 0;
   892  000F80  98AB               	bcf	171,4,c	;volatile
   893  000F82                     
   894                           ;SPARC_4585.c: 131:                 TXSTAbits.TXEN = 1;
   895  000F82  8AAC               	bsf	172,5,c	;volatile
   896  000F84                     
   897                           ;SPARC_4585.c: 132:                 RCSTAbits.CREN = 1;
   898  000F84  88AB               	bsf	171,4,c	;volatile
   899  000F86                     l2002:
   900                           
   901                           ;SPARC_4585.c: 134:             if (Task == 83) {
   902  000F86  0E53               	movlw	83
   903  000F88  181E               	xorwf	main@Task^0,w,c
   904  000F8A  A4D8               	btfss	status,2,c
   905  000F8C  EFCA  F007         	goto	u1181
   906  000F90  EFCC  F007         	goto	u1180
   907  000F94                     u1181:
   908  000F94  EFD9  F007         	goto	l2014
   909  000F98                     u1180:
   910  000F98                     
   911                           ;SPARC_4585.c: 135:                 LEDS_OFF();
   912  000F98  ECDF  F00C         	call	_LEDS_OFF	;wreg free
   913  000F9C                     
   914                           ;SPARC_4585.c: 136:                 PORTEbits.RE0 = 1;
   915  000F9C  8084               	bsf	132,0,c	;volatile
   916  000F9E                     
   917                           ;SPARC_4585.c: 137:                 TaskReceive = 1;
   918  000F9E  0E01               	movlw	1
   919  000FA0  6E33               	movwf	_TaskReceive^0,c
   920  000FA2                     
   921                           ;SPARC_4585.c: 138:                 XReceive = 0;
   922  000FA2  0E00               	movlw	0
   923  000FA4  6E2C               	movwf	(_XReceive+1)^0,c
   924  000FA6  0E00               	movlw	0
   925  000FA8  6E2B               	movwf	_XReceive^0,c
   926  000FAA                     
   927                           ;SPARC_4585.c: 139:                 YReceive = 0;
   928  000FAA  0E00               	movlw	0
   929  000FAC  6E2A               	movwf	(_YReceive+1)^0,c
   930  000FAE  0E00               	movlw	0
   931  000FB0  6E29               	movwf	_YReceive^0,c
   932  000FB2                     l2014:
   933                           
   934                           ;SPARC_4585.c: 141:             RCREG = 0;
   935  000FB2  0E00               	movlw	0
   936  000FB4  6EAE               	movwf	174,c	;volatile
   937  000FB6                     l2016:
   938                           
   939                           ;SPARC_4585.c: 88:         while (TaskReceive == 0) {
   940  000FB6  5033               	movf	_TaskReceive^0,w,c
   941  000FB8  B4D8               	btfsc	status,2,c
   942  000FBA  EFE1  F007         	goto	u1191
   943  000FBE  EFE3  F007         	goto	u1190
   944  000FC2                     u1191:
   945  000FC2  EF1E  F007         	goto	l317
   946  000FC6                     u1190:
   947  000FC6  EF4F  F009         	goto	l2124
   948  000FCA                     l2018:
   949                           
   950                           ;SPARC_4585.c: 146:             unsigned char *Ptrcoordenadas = (unsigned char*) &Instru
      +                          ccion.coordenadas[0];
   951  000FCA  0E1F               	movlw	low main@Instruccion
   952  000FCC  6E10               	movwf	main@Ptrcoordenadas^0,c
   953  000FCE  0E00               	movlw	high main@Instruccion
   954  000FD0  6E11               	movwf	(main@Ptrcoordenadas+1)^0,c
   955  000FD2                     
   956                           ;SPARC_4585.c: 148:             RECEIVE_STRING(Ptrcoordenadas, 6);
   957  000FD2  C010  F00A         	movff	main@Ptrcoordenadas,RECEIVE_STRING@guardarscan
   958  000FD6  C011  F00B         	movff	main@Ptrcoordenadas+1,RECEIVE_STRING@guardarscan+1
   959  000FDA  0E06               	movlw	6
   960  000FDC  6E0C               	movwf	RECEIVE_STRING@numcaracteres^0,c
   961  000FDE  EC08  F00C         	call	_RECEIVE_STRING	;wreg free
   962  000FE2                     
   963                           ;SPARC_4585.c: 150:             unsigned short Centenasx = (Instruccion.coordenada.x[0] 
      +                          - 48) * 100;
   964  000FE2  0ED0               	movlw	208
   965  000FE4  241F               	addwf	main@Instruccion^0,w,c
   966  000FE6  6E06               	movwf	___wmul@multiplier^0,c
   967  000FE8  6A07               	clrf	(___wmul@multiplier+1)^0,c
   968  000FEA  0EFF               	movlw	255
   969  000FEC  2207               	addwfc	(___wmul@multiplier+1)^0,f,c
   970  000FEE  0E00               	movlw	0
   971  000FF0  6E09               	movwf	(___wmul@multiplicand+1)^0,c
   972  000FF2  0E64               	movlw	100
   973  000FF4  6E08               	movwf	___wmul@multiplicand^0,c
   974  000FF6  EC20  F00C         	call	___wmul	;wreg free
   975  000FFA  C006  F012         	movff	?___wmul,main@Centenasx
   976  000FFE  C007  F013         	movff	?___wmul+1,main@Centenasx+1
   977  001002                     
   978                           ;SPARC_4585.c: 151:             unsigned short Decenasx = (Instruccion.coordenada.x[1] -
      +                           48) * 10;
   979  001002  0ED0               	movlw	208
   980  001004  2420               	addwf	(main@Instruccion+1)^0,w,c
   981  001006  6E06               	movwf	___wmul@multiplier^0,c
   982  001008  6A07               	clrf	(___wmul@multiplier+1)^0,c
   983  00100A  0EFF               	movlw	255
   984  00100C  2207               	addwfc	(___wmul@multiplier+1)^0,f,c
   985  00100E  0E00               	movlw	0
   986  001010  6E09               	movwf	(___wmul@multiplicand+1)^0,c
   987  001012  0E0A               	movlw	10
   988  001014  6E08               	movwf	___wmul@multiplicand^0,c
   989  001016  EC20  F00C         	call	___wmul	;wreg free
   990  00101A  C006  F014         	movff	?___wmul,main@Decenasx
   991  00101E  C007  F015         	movff	?___wmul+1,main@Decenasx+1
   992  001022                     
   993                           ;SPARC_4585.c: 152:             unsigned short Unidadx = Instruccion.coordenada.x[2] - 4
      +                          8;
   994  001022  0ED0               	movlw	208
   995  001024  2421               	addwf	(main@Instruccion+2)^0,w,c
   996  001026  6E16               	movwf	main@Unidadx^0,c
   997  001028  6A17               	clrf	(main@Unidadx+1)^0,c
   998  00102A  0EFF               	movlw	255
   999  00102C  2217               	addwfc	(main@Unidadx+1)^0,f,c
  1000  00102E                     
  1001                           ;SPARC_4585.c: 154:             X = Centenasx + Decenasx + Unidadx;
  1002  00102E  5014               	movf	main@Decenasx^0,w,c
  1003  001030  2412               	addwf	main@Centenasx^0,w,c
  1004  001032  6E0E               	movwf	??_main^0,c
  1005  001034  5015               	movf	(main@Decenasx+1)^0,w,c
  1006  001036  2013               	addwfc	(main@Centenasx+1)^0,w,c
  1007  001038  6E0F               	movwf	(??_main+1)^0,c
  1008  00103A  5016               	movf	main@Unidadx^0,w,c
  1009  00103C  240E               	addwf	??_main^0,w,c
  1010  00103E  6E2F               	movwf	_X^0,c
  1011  001040  5017               	movf	(main@Unidadx+1)^0,w,c
  1012  001042  200F               	addwfc	(??_main+1)^0,w,c
  1013  001044  6E30               	movwf	(_X+1)^0,c
  1014  001046                     
  1015                           ;SPARC_4585.c: 156:             unsigned short Centenasy = (Instruccion.coordenada.y[0] 
      +                          - 48) * 100;
  1016  001046  0ED0               	movlw	208
  1017  001048  2422               	addwf	(main@Instruccion+3)^0,w,c
  1018  00104A  6E06               	movwf	___wmul@multiplier^0,c
  1019  00104C  6A07               	clrf	(___wmul@multiplier+1)^0,c
  1020  00104E  0EFF               	movlw	255
  1021  001050  2207               	addwfc	(___wmul@multiplier+1)^0,f,c
  1022  001052  0E00               	movlw	0
  1023  001054  6E09               	movwf	(___wmul@multiplicand+1)^0,c
  1024  001056  0E64               	movlw	100
  1025  001058  6E08               	movwf	___wmul@multiplicand^0,c
  1026  00105A  EC20  F00C         	call	___wmul	;wreg free
  1027  00105E  C006  F018         	movff	?___wmul,main@Centenasy
  1028  001062  C007  F019         	movff	?___wmul+1,main@Centenasy+1
  1029  001066                     
  1030                           ;SPARC_4585.c: 157:             unsigned short Decenasy = (Instruccion.coordenada.y[1] -
      +                           48) * 10;
  1031  001066  0ED0               	movlw	208
  1032  001068  2423               	addwf	(main@Instruccion+4)^0,w,c
  1033  00106A  6E06               	movwf	___wmul@multiplier^0,c
  1034  00106C  6A07               	clrf	(___wmul@multiplier+1)^0,c
  1035  00106E  0EFF               	movlw	255
  1036  001070  2207               	addwfc	(___wmul@multiplier+1)^0,f,c
  1037  001072  0E00               	movlw	0
  1038  001074  6E09               	movwf	(___wmul@multiplicand+1)^0,c
  1039  001076  0E0A               	movlw	10
  1040  001078  6E08               	movwf	___wmul@multiplicand^0,c
  1041  00107A  EC20  F00C         	call	___wmul	;wreg free
  1042  00107E  C006  F01A         	movff	?___wmul,main@Decenasy
  1043  001082  C007  F01B         	movff	?___wmul+1,main@Decenasy+1
  1044  001086                     
  1045                           ;SPARC_4585.c: 158:             unsigned short Unidady = Instruccion.coordenada.y[2] - 4
      +                          8;
  1046  001086  0ED0               	movlw	208
  1047  001088  2424               	addwf	(main@Instruccion+5)^0,w,c
  1048  00108A  6E1C               	movwf	main@Unidady^0,c
  1049  00108C  6A1D               	clrf	(main@Unidady+1)^0,c
  1050  00108E  0EFF               	movlw	255
  1051  001090  221D               	addwfc	(main@Unidady+1)^0,f,c
  1052  001092                     
  1053                           ;SPARC_4585.c: 160:             Y = Centenasy + Decenasy + Unidady;
  1054  001092  501A               	movf	main@Decenasy^0,w,c
  1055  001094  2418               	addwf	main@Centenasy^0,w,c
  1056  001096  6E0E               	movwf	??_main^0,c
  1057  001098  501B               	movf	(main@Decenasy+1)^0,w,c
  1058  00109A  2019               	addwfc	(main@Centenasy+1)^0,w,c
  1059  00109C  6E0F               	movwf	(??_main+1)^0,c
  1060  00109E  501C               	movf	main@Unidady^0,w,c
  1061  0010A0  240E               	addwf	??_main^0,w,c
  1062  0010A2  6E2D               	movwf	_Y^0,c
  1063  0010A4  501D               	movf	(main@Unidady+1)^0,w,c
  1064  0010A6  200F               	addwfc	(??_main+1)^0,w,c
  1065  0010A8  6E2E               	movwf	(_Y+1)^0,c
  1066  0010AA                     
  1067                           ;SPARC_4585.c: 162:             if (Instruccion.coordenada.x[0] == ((void*)0) || Instruc
      +                          cion.coordenada.y[0] == ((void*)0)) {
  1068  0010AA  501F               	movf	main@Instruccion^0,w,c
  1069  0010AC  B4D8               	btfsc	status,2,c
  1070  0010AE  EF5B  F008         	goto	u1201
  1071  0010B2  EF5D  F008         	goto	u1200
  1072  0010B6                     u1201:
  1073  0010B6  EF65  F008         	goto	l2042
  1074  0010BA                     u1200:
  1075  0010BA  5022               	movf	(main@Instruccion+3)^0,w,c
  1076  0010BC  A4D8               	btfss	status,2,c
  1077  0010BE  EF63  F008         	goto	u1211
  1078  0010C2  EF65  F008         	goto	u1210
  1079  0010C6                     u1211:
  1080  0010C6  EF69  F008         	goto	l2046
  1081  0010CA                     u1210:
  1082  0010CA                     l2042:
  1083                           
  1084                           ;SPARC_4585.c: 163:                 FALTA_DATO();
  1085  0010CA  EC8A  F00C         	call	_FALTA_DATO	;wreg free
  1086  0010CE                     
  1087                           ;SPARC_4585.c: 164:                 NoNull = 1;
  1088  0010CE  0E01               	movlw	1
  1089  0010D0  6E31               	movwf	_NoNull^0,c
  1090  0010D2                     l2046:
  1091                           
  1092                           ;SPARC_4585.c: 166:             if (Instruccion.coordenada.x[1] == ((void*)0) || Instruc
      +                          cion.coordenada.y[1] == ((void*)0)) {
  1093  0010D2  5020               	movf	(main@Instruccion+1)^0,w,c
  1094  0010D4  B4D8               	btfsc	status,2,c
  1095  0010D6  EF6F  F008         	goto	u1221
  1096  0010DA  EF71  F008         	goto	u1220
  1097  0010DE                     u1221:
  1098  0010DE  EF79  F008         	goto	l2050
  1099  0010E2                     u1220:
  1100  0010E2  5023               	movf	(main@Instruccion+4)^0,w,c
  1101  0010E4  A4D8               	btfss	status,2,c
  1102  0010E6  EF77  F008         	goto	u1231
  1103  0010EA  EF79  F008         	goto	u1230
  1104  0010EE                     u1231:
  1105  0010EE  EF7D  F008         	goto	l2054
  1106  0010F2                     u1230:
  1107  0010F2                     l2050:
  1108                           
  1109                           ;SPARC_4585.c: 167:                 FALTA_DATO();
  1110  0010F2  EC8A  F00C         	call	_FALTA_DATO	;wreg free
  1111  0010F6                     
  1112                           ;SPARC_4585.c: 168:                 NoNull = 1;
  1113  0010F6  0E01               	movlw	1
  1114  0010F8  6E31               	movwf	_NoNull^0,c
  1115  0010FA                     l2054:
  1116                           
  1117                           ;SPARC_4585.c: 170:             if (Instruccion.coordenada.x[2] == ((void*)0) || Instruc
      +                          cion.coordenada.y[2] == ((void*)0)) {
  1118  0010FA  5021               	movf	(main@Instruccion+2)^0,w,c
  1119  0010FC  B4D8               	btfsc	status,2,c
  1120  0010FE  EF83  F008         	goto	u1241
  1121  001102  EF85  F008         	goto	u1240
  1122  001106                     u1241:
  1123  001106  EF8D  F008         	goto	l2058
  1124  00110A                     u1240:
  1125  00110A  5024               	movf	(main@Instruccion+5)^0,w,c
  1126  00110C  A4D8               	btfss	status,2,c
  1127  00110E  EF8B  F008         	goto	u1251
  1128  001112  EF8D  F008         	goto	u1250
  1129  001116                     u1251:
  1130  001116  EF91  F008         	goto	l2062
  1131  00111A                     u1250:
  1132  00111A                     l2058:
  1133                           
  1134                           ;SPARC_4585.c: 171:                 FALTA_DATO();
  1135  00111A  EC8A  F00C         	call	_FALTA_DATO	;wreg free
  1136  00111E                     
  1137                           ;SPARC_4585.c: 172:                 NoNull = 1;
  1138  00111E  0E01               	movlw	1
  1139  001120  6E31               	movwf	_NoNull^0,c
  1140  001122                     l2062:
  1141                           
  1142                           ;SPARC_4585.c: 175:             if (NoNull == 0) {
  1143  001122  5031               	movf	_NoNull^0,w,c
  1144  001124  A4D8               	btfss	status,2,c
  1145  001126  EF97  F008         	goto	u1261
  1146  00112A  EF99  F008         	goto	u1260
  1147  00112E                     u1261:
  1148  00112E  EF4B  F009         	goto	l2120
  1149  001132                     u1260:
  1150  001132                     
  1151                           ;SPARC_4585.c: 176:                 if (X > 300 || Y > 300) {
  1152  001132  0E2D               	movlw	45
  1153  001134  5C2F               	subwf	_X^0,w,c
  1154  001136  0E01               	movlw	1
  1155  001138  5830               	subwfb	(_X+1)^0,w,c
  1156  00113A  B0D8               	btfsc	status,0,c
  1157  00113C  EFA2  F008         	goto	u1271
  1158  001140  EFA4  F008         	goto	u1270
  1159  001144                     u1271:
  1160  001144  EFAF  F008         	goto	l2068
  1161  001148                     u1270:
  1162  001148  0E2D               	movlw	45
  1163  00114A  5C2D               	subwf	_Y^0,w,c
  1164  00114C  0E01               	movlw	1
  1165  00114E  582E               	subwfb	(_Y+1)^0,w,c
  1166  001150  A0D8               	btfss	status,0,c
  1167  001152  EFAD  F008         	goto	u1281
  1168  001156  EFAF  F008         	goto	u1280
  1169  00115A                     u1281:
  1170  00115A  EFB3  F008         	goto	l2072
  1171  00115E                     u1280:
  1172  00115E                     l2068:
  1173                           
  1174                           ;SPARC_4585.c: 177:                     ERROR_FUERA_LIMITE();
  1175  00115E  ECA4  F00C         	call	_ERROR_FUERA_LIMITE	;wreg free
  1176  001162                     
  1177                           ;SPARC_4585.c: 178:                     ERROR_LEDS();
  1178  001162  ECEF  F00C         	call	_ERROR_LEDS	;wreg free
  1179  001166                     l2072:
  1180                           
  1181                           ;SPARC_4585.c: 180:                 if (X < 301 && Y < 301) {
  1182  001166  0E2D               	movlw	45
  1183  001168  5C2F               	subwf	_X^0,w,c
  1184  00116A  0E01               	movlw	1
  1185  00116C  5830               	subwfb	(_X+1)^0,w,c
  1186  00116E  B0D8               	btfsc	status,0,c
  1187  001170  EFBC  F008         	goto	u1291
  1188  001174  EFBE  F008         	goto	u1290
  1189  001178                     u1291:
  1190  001178  EF4B  F009         	goto	l2120
  1191  00117C                     u1290:
  1192  00117C  0E2D               	movlw	45
  1193  00117E  5C2D               	subwf	_Y^0,w,c
  1194  001180  0E01               	movlw	1
  1195  001182  582E               	subwfb	(_Y+1)^0,w,c
  1196  001184  B0D8               	btfsc	status,0,c
  1197  001186  EFC7  F008         	goto	u1301
  1198  00118A  EFC9  F008         	goto	u1300
  1199  00118E                     u1301:
  1200  00118E  EF4B  F009         	goto	l2120
  1201  001192                     u1300:
  1202  001192                     
  1203                           ;SPARC_4585.c: 181:                     LEDS_OFF();
  1204  001192  ECDF  F00C         	call	_LEDS_OFF	;wreg free
  1205  001196                     
  1206                           ;SPARC_4585.c: 182:                     PROCESO();
  1207  001196  EC7D  F00C         	call	_PROCESO	;wreg free
  1208  00119A                     
  1209                           ;SPARC_4585.c: 183:                     PROCESO_LEDS();
  1210  00119A  ECDB  F00C         	call	_PROCESO_LEDS	;wreg free
  1211  00119E                     
  1212                           ;SPARC_4585.c: 184:                     if (PosicionX < X) {
  1213  00119E  502F               	movf	_X^0,w,c
  1214  0011A0  5C27               	subwf	_PosicionX^0,w,c
  1215  0011A2  5030               	movf	(_X+1)^0,w,c
  1216  0011A4  5828               	subwfb	(_PosicionX+1)^0,w,c
  1217  0011A6  B0D8               	btfsc	status,0,c
  1218  0011A8  EFD8  F008         	goto	u1311
  1219  0011AC  EFDA  F008         	goto	u1310
  1220  0011B0                     u1311:
  1221  0011B0  EFEA  F008         	goto	l2088
  1222  0011B4                     u1310:
  1223  0011B4                     
  1224                           ;SPARC_4585.c: 185:                         TXSTAbits.TXEN = 0;
  1225  0011B4  9AAC               	bcf	172,5,c	;volatile
  1226                           
  1227                           ;SPARC_4585.c: 186:                         RCSTAbits.CREN = 0;
  1228  0011B6  98AB               	bcf	171,4,c	;volatile
  1229  0011B8                     
  1230                           ;SPARC_4585.c: 187:                         PosicionX = MOV_R_PASOS_X(PosicionX, X);
  1231  0011B8  C027  F006         	movff	_PosicionX,MOV_R_PASOS_X@posicion
  1232  0011BC  C028  F007         	movff	_PosicionX+1,MOV_R_PASOS_X@posicion+1
  1233  0011C0  C02F  F008         	movff	_X,MOV_R_PASOS_X@coordenada
  1234  0011C4  C030  F009         	movff	_X+1,MOV_R_PASOS_X@coordenada+1
  1235  0011C8  EC9D  F00B         	call	_MOV_R_PASOS_X	;wreg free
  1236  0011CC  C006  F027         	movff	?_MOV_R_PASOS_X,_PosicionX
  1237  0011D0  C007  F028         	movff	?_MOV_R_PASOS_X+1,_PosicionX+1
  1238  0011D4                     l2088:
  1239                           
  1240                           ;SPARC_4585.c: 189:                     if (PosicionX > X) {
  1241  0011D4  5027               	movf	_PosicionX^0,w,c
  1242  0011D6  5C2F               	subwf	_X^0,w,c
  1243  0011D8  5028               	movf	(_PosicionX+1)^0,w,c
  1244  0011DA  5830               	subwfb	(_X+1)^0,w,c
  1245  0011DC  B0D8               	btfsc	status,0,c
  1246  0011DE  EFF3  F008         	goto	u1321
  1247  0011E2  EFF5  F008         	goto	u1320
  1248  0011E6                     u1321:
  1249  0011E6  EF05  F009         	goto	l2094
  1250  0011EA                     u1320:
  1251  0011EA                     
  1252                           ;SPARC_4585.c: 190:                         TXSTAbits.TXEN = 0;
  1253  0011EA  9AAC               	bcf	172,5,c	;volatile
  1254                           
  1255                           ;SPARC_4585.c: 191:                         RCSTAbits.CREN = 0;
  1256  0011EC  98AB               	bcf	171,4,c	;volatile
  1257  0011EE                     
  1258                           ;SPARC_4585.c: 192:                         PosicionX = MOV_L_PASOS_X(PosicionX, X);
  1259  0011EE  C027  F006         	movff	_PosicionX,MOV_L_PASOS_X@posicion
  1260  0011F2  C028  F007         	movff	_PosicionX+1,MOV_L_PASOS_X@posicion+1
  1261  0011F6  C02F  F008         	movff	_X,MOV_L_PASOS_X@coordenada
  1262  0011FA  C030  F009         	movff	_X+1,MOV_L_PASOS_X@coordenada+1
  1263  0011FE  EC26  F00B         	call	_MOV_L_PASOS_X	;wreg free
  1264  001202  C006  F027         	movff	?_MOV_L_PASOS_X,_PosicionX
  1265  001206  C007  F028         	movff	?_MOV_L_PASOS_X+1,_PosicionX+1
  1266  00120A                     l2094:
  1267                           
  1268                           ;SPARC_4585.c: 194:                     if (PosicionY < Y) {
  1269  00120A  502D               	movf	_Y^0,w,c
  1270  00120C  5C25               	subwf	_PosicionY^0,w,c
  1271  00120E  502E               	movf	(_Y+1)^0,w,c
  1272  001210  5826               	subwfb	(_PosicionY+1)^0,w,c
  1273  001212  B0D8               	btfsc	status,0,c
  1274  001214  EF0E  F009         	goto	u1331
  1275  001218  EF10  F009         	goto	u1330
  1276  00121C                     u1331:
  1277  00121C  EF20  F009         	goto	l2100
  1278  001220                     u1330:
  1279  001220                     
  1280                           ;SPARC_4585.c: 195:                         TXSTAbits.TXEN = 0;
  1281  001220  9AAC               	bcf	172,5,c	;volatile
  1282                           
  1283                           ;SPARC_4585.c: 196:                         RCSTAbits.CREN = 0;
  1284  001222  98AB               	bcf	171,4,c	;volatile
  1285  001224                     
  1286                           ;SPARC_4585.c: 197:                         PosicionY = MOV_R_PASOS_Y(PosicionY, Y);
  1287  001224  C025  F006         	movff	_PosicionY,MOV_R_PASOS_Y@posicion
  1288  001228  C026  F007         	movff	_PosicionY+1,MOV_R_PASOS_Y@posicion+1
  1289  00122C  C02D  F008         	movff	_Y,MOV_R_PASOS_Y@coordenada
  1290  001230  C02E  F009         	movff	_Y+1,MOV_R_PASOS_Y@coordenada+1
  1291  001234  EC62  F00B         	call	_MOV_R_PASOS_Y	;wreg free
  1292  001238  C006  F025         	movff	?_MOV_R_PASOS_Y,_PosicionY
  1293  00123C  C007  F026         	movff	?_MOV_R_PASOS_Y+1,_PosicionY+1
  1294  001240                     l2100:
  1295                           
  1296                           ;SPARC_4585.c: 199:                     if (PosicionY > Y) {
  1297  001240  5025               	movf	_PosicionY^0,w,c
  1298  001242  5C2D               	subwf	_Y^0,w,c
  1299  001244  5026               	movf	(_PosicionY+1)^0,w,c
  1300  001246  582E               	subwfb	(_Y+1)^0,w,c
  1301  001248  B0D8               	btfsc	status,0,c
  1302  00124A  EF29  F009         	goto	u1341
  1303  00124E  EF2B  F009         	goto	u1340
  1304  001252                     u1341:
  1305  001252  EF3B  F009         	goto	l2106
  1306  001256                     u1340:
  1307  001256                     
  1308                           ;SPARC_4585.c: 200:                         TXSTAbits.TXEN = 0;
  1309  001256  9AAC               	bcf	172,5,c	;volatile
  1310                           
  1311                           ;SPARC_4585.c: 201:                         RCSTAbits.CREN = 0;
  1312  001258  98AB               	bcf	171,4,c	;volatile
  1313  00125A                     
  1314                           ;SPARC_4585.c: 202:                         PosicionY = MOV_L_PASOS_Y(PosicionY, Y);
  1315  00125A  C025  F006         	movff	_PosicionY,MOV_L_PASOS_Y@posicion
  1316  00125E  C026  F007         	movff	_PosicionY+1,MOV_L_PASOS_Y@posicion+1
  1317  001262  C02D  F008         	movff	_Y,MOV_L_PASOS_Y@coordenada
  1318  001266  C02E  F009         	movff	_Y+1,MOV_L_PASOS_Y@coordenada+1
  1319  00126A  ECEA  F00A         	call	_MOV_L_PASOS_Y	;wreg free
  1320  00126E  C006  F025         	movff	?_MOV_L_PASOS_Y,_PosicionY
  1321  001272  C007  F026         	movff	?_MOV_L_PASOS_Y+1,_PosicionY+1
  1322  001276                     l2106:
  1323                           
  1324                           ;SPARC_4585.c: 204:                     TXSTAbits.TXEN = 1;
  1325  001276  8AAC               	bsf	172,5,c	;volatile
  1326  001278                     
  1327                           ;SPARC_4585.c: 205:                     RCSTAbits.CREN = 1;
  1328  001278  88AB               	bsf	171,4,c	;volatile
  1329  00127A                     
  1330                           ;SPARC_4585.c: 206:                     TERMINADO_LEDS();
  1331  00127A  ECD7  F00C         	call	_TERMINADO_LEDS	;wreg free
  1332  00127E                     
  1333                           ;SPARC_4585.c: 207:                     TERMINADO();
  1334  00127E  EC70  F00C         	call	_TERMINADO	;wreg free
  1335  001282                     
  1336                           ;SPARC_4585.c: 208:                     TaskReceive = 0;
  1337  001282  0E00               	movlw	0
  1338  001284  6E33               	movwf	_TaskReceive^0,c
  1339  001286                     
  1340                           ;SPARC_4585.c: 209:                     XReceive = 1;
  1341  001286  0E00               	movlw	0
  1342  001288  6E2C               	movwf	(_XReceive+1)^0,c
  1343  00128A  0E01               	movlw	1
  1344  00128C  6E2B               	movwf	_XReceive^0,c
  1345  00128E                     
  1346                           ;SPARC_4585.c: 210:                     YReceive = 1;
  1347  00128E  0E00               	movlw	0
  1348  001290  6E2A               	movwf	(_YReceive+1)^0,c
  1349  001292  0E01               	movlw	1
  1350  001294  6E29               	movwf	_YReceive^0,c
  1351  001296                     l2120:
  1352                           
  1353                           ;SPARC_4585.c: 213:             NoNull = 0;
  1354  001296  0E00               	movlw	0
  1355  001298  6E31               	movwf	_NoNull^0,c
  1356  00129A                     
  1357                           ;SPARC_4585.c: 214:             RCREG = 0;
  1358  00129A  0E00               	movlw	0
  1359  00129C  6EAE               	movwf	174,c	;volatile
  1360  00129E                     l2124:
  1361                           
  1362                           ;SPARC_4585.c: 144:         while (XReceive == 0 && YReceive == 0) {
  1363  00129E  502B               	movf	_XReceive^0,w,c
  1364  0012A0  102C               	iorwf	(_XReceive+1)^0,w,c
  1365  0012A2  A4D8               	btfss	status,2,c
  1366  0012A4  EF56  F009         	goto	u1351
  1367  0012A8  EF58  F009         	goto	u1350
  1368  0012AC                     u1351:
  1369  0012AC  EFDB  F007         	goto	l2016
  1370  0012B0                     u1350:
  1371  0012B0  5029               	movf	_YReceive^0,w,c
  1372  0012B2  102A               	iorwf	(_YReceive+1)^0,w,c
  1373  0012B4  B4D8               	btfsc	status,2,c
  1374  0012B6  EF5F  F009         	goto	u1361
  1375  0012BA  EF61  F009         	goto	u1360
  1376  0012BE                     u1361:
  1377  0012BE  EFE5  F007         	goto	l2018
  1378  0012C2                     u1360:
  1379  0012C2  EFDB  F007         	goto	l2016
  1380  0012C6  EF07  F000         	goto	start
  1381  0012CA                     __end_of_main:
  1382                           	opt callstack 0
  1383                           
  1384 ;; *************** function ___wmul *****************
  1385 ;; Defined at:
  1386 ;;		line 15 in file "C:\Program Files (x86)\Microchip\xc8\v2.10\pic\sources\c99\common\Umul16.c"
  1387 ;; Parameters:    Size  Location     Type
  1388 ;;  multiplier      2    5[COMRAM] unsigned int 
  1389 ;;  multiplicand    2    7[COMRAM] unsigned int 
  1390 ;; Auto vars:     Size  Location     Type
  1391 ;;  product         2    9[COMRAM] unsigned int 
  1392 ;; Return value:  Size  Location     Type
  1393 ;;                  2    5[COMRAM] unsigned int 
  1394 ;; Registers used:
  1395 ;;		wreg, status,2, status,0, prodl, prodh
  1396 ;; Tracked objects:
  1397 ;;		On entry : 0/0
  1398 ;;		On exit  : 0/0
  1399 ;;		Unchanged: 0/0
  1400 ;; Data sizes:     COMRAM   BANK0   BANK1   BANK2   BANK3   BANK4   BANK5   BANK6   BANK7   BANK8   BANK9  BANK10  BANK1
      +1  BANK12
  1401 ;;      Params:         4       0       0       0       0       0       0       0       0       0       0       0       
      +0       0
  1402 ;;      Locals:         2       0       0       0       0       0       0       0       0       0       0       0       
      +0       0
  1403 ;;      Temps:          0       0       0       0       0       0       0       0       0       0       0       0       
      +0       0
  1404 ;;      Totals:         6       0       0       0       0       0       0       0       0       0       0       0       
      +0       0
  1405 ;;Total ram usage:        6 bytes
  1406 ;; Hardware stack levels used:    1
  1407 ;; Hardware stack levels required when called:    2
  1408 ;; This function calls:
  1409 ;;		Nothing
  1410 ;; This function is called by:
  1411 ;;		_main
  1412 ;; This function uses a non-reentrant model
  1413 ;;
  1414                           
  1415                           	psect	text1
  1416  001840                     __ptext1:
  1417                           	opt callstack 0
  1418  001840                     ___wmul:
  1419                           	opt callstack 28
  1420  001840  5006               	movf	___wmul@multiplier^0,w,c
  1421  001842  0208               	mulwf	___wmul@multiplicand^0,c
  1422  001844  CFF3 F00A          	movff	prodl,___wmul@product
  1423  001848  CFF4 F00B          	movff	prodh,___wmul@product+1
  1424  00184C  5006               	movf	___wmul@multiplier^0,w,c
  1425  00184E  0209               	mulwf	(___wmul@multiplicand+1)^0,c
  1426  001850  50F3               	movf	243,w,c
  1427  001852  260B               	addwf	(___wmul@product+1)^0,f,c
  1428  001854  5007               	movf	(___wmul@multiplier+1)^0,w,c
  1429  001856  0208               	mulwf	___wmul@multiplicand^0,c
  1430  001858  50F3               	movf	243,w,c
  1431  00185A  260B               	addwf	(___wmul@product+1)^0,f,c
  1432  00185C  C00A  F006         	movff	___wmul@product,?___wmul
  1433  001860  C00B  F007         	movff	___wmul@product+1,?___wmul+1
  1434  001864  0012               	return		;funcret
  1435  001866                     __end_of___wmul:
  1436                           	opt callstack 0
  1437                           
  1438 ;; *************** function _UP_PLATFORM *****************
  1439 ;; Defined at:
  1440 ;;		line 12 in file "BOTONES.c"
  1441 ;; Parameters:    Size  Location     Type
  1442 ;;		None
  1443 ;; Auto vars:     Size  Location     Type
  1444 ;;		None
  1445 ;; Return value:  Size  Location     Type
  1446 ;;                  1    wreg      void 
  1447 ;; Registers used:
  1448 ;;		cstack
  1449 ;; Tracked objects:
  1450 ;;		On entry : 0/0
  1451 ;;		On exit  : 0/0
  1452 ;;		Unchanged: 0/0
  1453 ;; Data sizes:     COMRAM   BANK0   BANK1   BANK2   BANK3   BANK4   BANK5   BANK6   BANK7   BANK8   BANK9  BANK10  BANK1
      +1  BANK12
  1454 ;;      Params:         0       0       0       0       0       0       0       0       0       0       0       0       
      +0       0
  1455 ;;      Locals:         0       0       0       0       0       0       0       0       0       0       0       0       
      +0       0
  1456 ;;      Temps:          0       0       0       0       0       0       0       0       0       0       0       0       
      +0       0
  1457 ;;      Totals:         0       0       0       0       0       0       0       0       0       0       0       0       
      +0       0
  1458 ;;Total ram usage:        0 bytes
  1459 ;; Hardware stack levels used:    1
  1460 ;; Hardware stack levels required when called:    3
  1461 ;; This function calls:
  1462 ;;		_MOV_R_DC
  1463 ;;		_MOV_STOP_DC
  1464 ;; This function is called by:
  1465 ;;		_main
  1466 ;; This function uses a non-reentrant model
  1467 ;;
  1468                           
  1469                           	psect	text2
  1470  0018A8                     __ptext2:
  1471                           	opt callstack 0
  1472  0018A8                     _UP_PLATFORM:
  1473                           	opt callstack 27
  1474  0018A8                     
  1475                           ;BOTONES.c: 13:     while (PORTCbits.RC4 == 1) {
  1476  0018A8  EF58  F00C         	goto	l1148
  1477  0018AC                     l1146:
  1478                           
  1479                           ;BOTONES.c: 14:         MOV_R_DC();
  1480  0018AC  ECD3  F00C         	call	_MOV_R_DC	;wreg free
  1481  0018B0                     l1148:
  1482                           
  1483                           ;BOTONES.c: 13:     while (PORTCbits.RC4 == 1) {
  1484  0018B0  B882               	btfsc	130,4,c	;volatile
  1485  0018B2  EF5D  F00C         	goto	u71
  1486  0018B6  EF5F  F00C         	goto	u70
  1487  0018BA                     u71:
  1488  0018BA  EF56  F00C         	goto	l1146
  1489  0018BE                     u70:
  1490  0018BE                     
  1491                           ;BOTONES.c: 16:     MOV_STOP_DC();
  1492  0018BE  ECF3  F00C         	call	_MOV_STOP_DC	;wreg free
  1493  0018C2  0012               	return		;funcret
  1494  0018C4                     __end_of_UP_PLATFORM:
  1495                           	opt callstack 0
  1496                           
  1497 ;; *************** function _MOV_R_DC *****************
  1498 ;; Defined at:
  1499 ;;		line 11 in file "MOTORES_DC.c"
  1500 ;; Parameters:    Size  Location     Type
  1501 ;;		None
  1502 ;; Auto vars:     Size  Location     Type
  1503 ;;		None
  1504 ;; Return value:  Size  Location     Type
  1505 ;;                  1    wreg      void 
  1506 ;; Registers used:
  1507 ;;		None
  1508 ;; Tracked objects:
  1509 ;;		On entry : 0/0
  1510 ;;		On exit  : 0/0
  1511 ;;		Unchanged: 0/0
  1512 ;; Data sizes:     COMRAM   BANK0   BANK1   BANK2   BANK3   BANK4   BANK5   BANK6   BANK7   BANK8   BANK9  BANK10  BANK1
      +1  BANK12
  1513 ;;      Params:         0       0       0       0       0       0       0       0       0       0       0       0       
      +0       0
  1514 ;;      Locals:         0       0       0       0       0       0       0       0       0       0       0       0       
      +0       0
  1515 ;;      Temps:          0       0       0       0       0       0       0       0       0       0       0       0       
      +0       0
  1516 ;;      Totals:         0       0       0       0       0       0       0       0       0       0       0       0       
      +0       0
  1517 ;;Total ram usage:        0 bytes
  1518 ;; Hardware stack levels used:    1
  1519 ;; Hardware stack levels required when called:    2
  1520 ;; This function calls:
  1521 ;;		Nothing
  1522 ;; This function is called by:
  1523 ;;		_UP_PLATFORM
  1524 ;; This function uses a non-reentrant model
  1525 ;;
  1526                           
  1527                           	psect	text3
  1528  0019A6                     __ptext3:
  1529                           	opt callstack 0
  1530  0019A6                     _MOV_R_DC:
  1531                           	opt callstack 27
  1532  0019A6  888C               	bsf	140,4,c	;volatile
  1533  0019A8  8A8C               	bsf	140,5,c	;volatile
  1534  0019AA  9C8C               	bcf	140,6,c	;volatile
  1535  0019AC  0012               	return		;funcret
  1536  0019AE                     __end_of_MOV_R_DC:
  1537                           	opt callstack 0
  1538                           
  1539 ;; *************** function _TERMINADO_LEDS *****************
  1540 ;; Defined at:
  1541 ;;		line 29 in file "LEDS.c"
  1542 ;; Parameters:    Size  Location     Type
  1543 ;;		None
  1544 ;; Auto vars:     Size  Location     Type
  1545 ;;		None
  1546 ;; Return value:  Size  Location     Type
  1547 ;;                  1    wreg      void 
  1548 ;; Registers used:
  1549 ;;		None
  1550 ;; Tracked objects:
  1551 ;;		On entry : 0/0
  1552 ;;		On exit  : 0/0
  1553 ;;		Unchanged: 0/0
  1554 ;; Data sizes:     COMRAM   BANK0   BANK1   BANK2   BANK3   BANK4   BANK5   BANK6   BANK7   BANK8   BANK9  BANK10  BANK1
      +1  BANK12
  1555 ;;      Params:         0       0       0       0       0       0       0       0       0       0       0       0       
      +0       0
  1556 ;;      Locals:         0       0       0       0       0       0       0       0       0       0       0       0       
      +0       0
  1557 ;;      Temps:          0       0       0       0       0       0       0       0       0       0       0       0       
      +0       0
  1558 ;;      Totals:         0       0       0       0       0       0       0       0       0       0       0       0       
      +0       0
  1559 ;;Total ram usage:        0 bytes
  1560 ;; Hardware stack levels used:    1
  1561 ;; Hardware stack levels required when called:    2
  1562 ;; This function calls:
  1563 ;;		Nothing
  1564 ;; This function is called by:
  1565 ;;		_main
  1566 ;; This function uses a non-reentrant model
  1567 ;;
  1568                           
  1569                           	psect	text4
  1570  0019AE                     __ptext4:
  1571                           	opt callstack 0
  1572  0019AE                     _TERMINADO_LEDS:
  1573                           	opt callstack 28
  1574  0019AE  9A8A               	bcf	138,5,c	;volatile
  1575  0019B0  8C8A               	bsf	138,6,c	;volatile
  1576  0019B2  9E8A               	bcf	138,7,c	;volatile
  1577  0019B4  0012               	return		;funcret
  1578  0019B6                     __end_of_TERMINADO_LEDS:
  1579                           	opt callstack 0
  1580                           
  1581 ;; *************** function _TERMINADO *****************
  1582 ;; Defined at:
  1583 ;;		line 18 in file "MENSAJES.c"
  1584 ;; Parameters:    Size  Location     Type
  1585 ;;		None
  1586 ;; Auto vars:     Size  Location     Type
  1587 ;;		None
  1588 ;; Return value:  Size  Location     Type
  1589 ;;                  1    wreg      void 
  1590 ;; Registers used:
  1591 ;;		wreg, status,2, status,0, tblptrl, tblptrh, tblptru, cstack
  1592 ;; Tracked objects:
  1593 ;;		On entry : 0/0
  1594 ;;		On exit  : 0/0
  1595 ;;		Unchanged: 0/0
  1596 ;; Data sizes:     COMRAM   BANK0   BANK1   BANK2   BANK3   BANK4   BANK5   BANK6   BANK7   BANK8   BANK9  BANK10  BANK1
      +1  BANK12
  1597 ;;      Params:         0       0       0       0       0       0       0       0       0       0       0       0       
      +0       0
  1598 ;;      Locals:         0       0       0       0       0       0       0       0       0       0       0       0       
      +0       0
  1599 ;;      Temps:          0       0       0       0       0       0       0       0       0       0       0       0       
      +0       0
  1600 ;;      Totals:         0       0       0       0       0       0       0       0       0       0       0       0       
      +0       0
  1601 ;;Total ram usage:        0 bytes
  1602 ;; Hardware stack levels used:    1
  1603 ;; Hardware stack levels required when called:    4
  1604 ;; This function calls:
  1605 ;;		_SEND_STRING
  1606 ;;		_SEND_UART
  1607 ;; This function is called by:
  1608 ;;		_main
  1609 ;; This function uses a non-reentrant model
  1610 ;;
  1611                           
  1612                           	psect	text5
  1613  0018E0                     __ptext5:
  1614                           	opt callstack 0
  1615  0018E0                     _TERMINADO:
  1616                           	opt callstack 26
  1617  0018E0                     
  1618                           ;MENSAJES.c: 19:     SEND_UART(10);
  1619  0018E0  0E0A               	movlw	10
  1620  0018E2  ECB1  F00C         	call	_SEND_UART
  1621  0018E6                     
  1622                           ;MENSAJES.c: 20:     SEND_STRING("Proceso completado");
  1623  0018E6  0E34               	movlw	low STR_3
  1624  0018E8  6E07               	movwf	SEND_STRING@PointString^0,c
  1625  0018EA  0E0D               	movlw	high STR_3
  1626  0018EC  6E08               	movwf	(SEND_STRING@PointString+1)^0,c
  1627  0018EE  ECB2  F009         	call	_SEND_STRING	;wreg free
  1628  0018F2                     
  1629                           ;MENSAJES.c: 21:     SEND_UART(13);
  1630  0018F2  0E0D               	movlw	13
  1631  0018F4  ECB1  F00C         	call	_SEND_UART
  1632  0018F8  0012               	return		;funcret
  1633  0018FA                     __end_of_TERMINADO:
  1634                           	opt callstack 0
  1635                           
  1636 ;; *************** function _RECEIVE_STRING *****************
  1637 ;; Defined at:
  1638 ;;		line 15 in file "SERIAL.c"
  1639 ;; Parameters:    Size  Location     Type
  1640 ;;  guardarscan     2    9[COMRAM] PTR unsigned char 
  1641 ;;		 -> main@Instruccion(6), 
  1642 ;;  numcaractere    1   11[COMRAM] unsigned char 
  1643 ;; Auto vars:     Size  Location     Type
  1644 ;;  i               1   12[COMRAM] unsigned char 
  1645 ;; Return value:  Size  Location     Type
  1646 ;;                  1    wreg      void 
  1647 ;; Registers used:
  1648 ;;		wreg, fsr2l, fsr2h, status,2, status,0, cstack
  1649 ;; Tracked objects:
  1650 ;;		On entry : 0/0
  1651 ;;		On exit  : 0/0
  1652 ;;		Unchanged: 0/0
  1653 ;; Data sizes:     COMRAM   BANK0   BANK1   BANK2   BANK3   BANK4   BANK5   BANK6   BANK7   BANK8   BANK9  BANK10  BANK1
      +1  BANK12
  1654 ;;      Params:         3       0       0       0       0       0       0       0       0       0       0       0       
      +0       0
  1655 ;;      Locals:         1       0       0       0       0       0       0       0       0       0       0       0       
      +0       0
  1656 ;;      Temps:          0       0       0       0       0       0       0       0       0       0       0       0       
      +0       0
  1657 ;;      Totals:         4       0       0       0       0       0       0       0       0       0       0       0       
      +0       0
  1658 ;;Total ram usage:        4 bytes
  1659 ;; Hardware stack levels used:    1
  1660 ;; Hardware stack levels required when called:    3
  1661 ;; This function calls:
  1662 ;;		_RECEIVE_UART
  1663 ;; This function is called by:
  1664 ;;		_main
  1665 ;; This function uses a non-reentrant model
  1666 ;;
  1667                           
  1668                           	psect	text6
  1669  001810                     __ptext6:
  1670                           	opt callstack 0
  1671  001810                     _RECEIVE_STRING:
  1672                           	opt callstack 27
  1673  001810                     
  1674                           ;SERIAL.c: 16:     for (unsigned char i = 0; i < numcaracteres; i++) {
  1675  001810  0E00               	movlw	0
  1676  001812  6E0D               	movwf	RECEIVE_STRING@i^0,c
  1677  001814  EF16  F00C         	goto	l1682
  1678  001818                     l1678:
  1679                           
  1680                           ;SERIAL.c: 17:         guardarscan[i] = RECEIVE_UART();
  1681  001818  500D               	movf	RECEIVE_STRING@i^0,w,c
  1682  00181A  240A               	addwf	RECEIVE_STRING@guardarscan^0,w,c
  1683  00181C  6ED9               	movwf	fsr2l,c
  1684  00181E  0E00               	movlw	0
  1685  001820  200B               	addwfc	(RECEIVE_STRING@guardarscan+1)^0,w,c
  1686  001822  6EDA               	movwf	fsr2h,c
  1687  001824  ECD8  F00B         	call	_RECEIVE_UART	;wreg free
  1688  001828  6EDF               	movwf	indf2,c
  1689  00182A                     
  1690                           ;SERIAL.c: 18:     }
  1691  00182A  2A0D               	incf	RECEIVE_STRING@i^0,f,c
  1692  00182C                     l1682:
  1693  00182C  500C               	movf	RECEIVE_STRING@numcaracteres^0,w,c
  1694  00182E  5C0D               	subwf	RECEIVE_STRING@i^0,w,c
  1695  001830  A0D8               	btfss	status,0,c
  1696  001832  EF1D  F00C         	goto	u761
  1697  001836  EF1F  F00C         	goto	u760
  1698  00183A                     u761:
  1699  00183A  EF0C  F00C         	goto	l1678
  1700  00183E                     u760:
  1701  00183E  0012               	return		;funcret
  1702  001840                     __end_of_RECEIVE_STRING:
  1703                           	opt callstack 0
  1704                           
  1705 ;; *************** function _RECEIVE_UART *****************
  1706 ;; Defined at:
  1707 ;;		line 24 in file "UART.c"
  1708 ;; Parameters:    Size  Location     Type
  1709 ;;		None
  1710 ;; Auto vars:     Size  Location     Type
  1711 ;;  Cont            4    5[COMRAM] unsigned long 
  1712 ;; Return value:  Size  Location     Type
  1713 ;;                  1    wreg      unsigned char 
  1714 ;; Registers used:
  1715 ;;		wreg, status,2, status,0
  1716 ;; Tracked objects:
  1717 ;;		On entry : 0/0
  1718 ;;		On exit  : 0/0
  1719 ;;		Unchanged: 0/0
  1720 ;; Data sizes:     COMRAM   BANK0   BANK1   BANK2   BANK3   BANK4   BANK5   BANK6   BANK7   BANK8   BANK9  BANK10  BANK1
      +1  BANK12
  1721 ;;      Params:         0       0       0       0       0       0       0       0       0       0       0       0       
      +0       0
  1722 ;;      Locals:         4       0       0       0       0       0       0       0       0       0       0       0       
      +0       0
  1723 ;;      Temps:          0       0       0       0       0       0       0       0       0       0       0       0       
      +0       0
  1724 ;;      Totals:         4       0       0       0       0       0       0       0       0       0       0       0       
      +0       0
  1725 ;;Total ram usage:        4 bytes
  1726 ;; Hardware stack levels used:    1
  1727 ;; Hardware stack levels required when called:    2
  1728 ;; This function calls:
  1729 ;;		Nothing
  1730 ;; This function is called by:
  1731 ;;		_RECEIVE_STRING
  1732 ;;		_main
  1733 ;; This function uses a non-reentrant model
  1734 ;;
  1735                           
  1736                           	psect	text7
  1737  0017B0                     __ptext7:
  1738                           	opt callstack 0
  1739  0017B0                     _RECEIVE_UART:
  1740                           	opt callstack 28
  1741  0017B0                     
  1742                           ;UART.c: 25:     unsigned long Cont = 0;
  1743  0017B0  0E00               	movlw	0
  1744  0017B2  6E06               	movwf	RECEIVE_UART@Cont^0,c
  1745  0017B4  0E00               	movlw	0
  1746  0017B6  6E07               	movwf	(RECEIVE_UART@Cont+1)^0,c
  1747  0017B8  0E00               	movlw	0
  1748  0017BA  6E08               	movwf	(RECEIVE_UART@Cont+2)^0,c
  1749  0017BC  0E00               	movlw	0
  1750  0017BE  6E09               	movwf	(RECEIVE_UART@Cont+3)^0,c
  1751                           
  1752                           ;UART.c: 26:     while (PIR1bits.RCIF == 0) {
  1753  0017C0  EFFB  F00B         	goto	l1138
  1754  0017C4                     l1130:
  1755                           
  1756                           ;UART.c: 27:         if (Cont == 750000) {
  1757  0017C4  0EB0               	movlw	176
  1758  0017C6  1806               	xorwf	RECEIVE_UART@Cont^0,w,c
  1759  0017C8  E10B               	bnz	u51
  1760  0017CA  0E71               	movlw	113
  1761  0017CC  1807               	xorwf	(RECEIVE_UART@Cont+1)^0,w,c
  1762  0017CE  E108               	bnz	u51
  1763  0017D0  0E0B               	movlw	11
  1764  0017D2  1808               	xorwf	(RECEIVE_UART@Cont+2)^0,w,c
  1765  0017D4  1009               	iorwf	(RECEIVE_UART@Cont+3)^0,w,c
  1766  0017D6  A4D8               	btfss	status,2,c
  1767  0017D8  EFF0  F00B         	goto	u51
  1768  0017DC  EFF2  F00B         	goto	u50
  1769  0017E0                     u51:
  1770  0017E0  EFF5  F00B         	goto	l1136
  1771  0017E4                     u50:
  1772  0017E4                     
  1773                           ;UART.c: 28:             return ((void*)0);
  1774  0017E4  0E00               	movlw	0
  1775  0017E6  EF07  F00C         	goto	l186
  1776  0017EA                     l1136:
  1777                           
  1778                           ;UART.c: 30:         Cont++;
  1779  0017EA  0E01               	movlw	1
  1780  0017EC  2606               	addwf	RECEIVE_UART@Cont^0,f,c
  1781  0017EE  0E00               	movlw	0
  1782  0017F0  2207               	addwfc	(RECEIVE_UART@Cont+1)^0,f,c
  1783  0017F2  2208               	addwfc	(RECEIVE_UART@Cont+2)^0,f,c
  1784  0017F4  2209               	addwfc	(RECEIVE_UART@Cont+3)^0,f,c
  1785  0017F6                     l1138:
  1786                           
  1787                           ;UART.c: 26:     while (PIR1bits.RCIF == 0) {
  1788  0017F6  AA9E               	btfss	158,5,c	;volatile
  1789  0017F8  EF00  F00C         	goto	u61
  1790  0017FC  EF02  F00C         	goto	u60
  1791  001800                     u61:
  1792  001800  EFE2  F00B         	goto	l1130
  1793  001804                     u60:
  1794  001804                     
  1795                           ;UART.c: 32:     RX_Data = RCREG;
  1796  001804  CFAE F036          	movff	4014,_RX_Data	;volatile
  1797  001808                     
  1798                           ;UART.c: 33:     RCREG = 0;
  1799  001808  0E00               	movlw	0
  1800  00180A  6EAE               	movwf	174,c	;volatile
  1801                           
  1802                           ;UART.c: 34:     return RX_Data;
  1803  00180C  5036               	movf	_RX_Data^0,w,c
  1804  00180E                     l186:
  1805  00180E  0012               	return		;funcret
  1806  001810                     __end_of_RECEIVE_UART:
  1807                           	opt callstack 0
  1808                           
  1809 ;; *************** function _PROCESO_LEDS *****************
  1810 ;; Defined at:
  1811 ;;		line 23 in file "LEDS.c"
  1812 ;; Parameters:    Size  Location     Type
  1813 ;;		None
  1814 ;; Auto vars:     Size  Location     Type
  1815 ;;		None
  1816 ;; Return value:  Size  Location     Type
  1817 ;;                  1    wreg      void 
  1818 ;; Registers used:
  1819 ;;		None
  1820 ;; Tracked objects:
  1821 ;;		On entry : 0/0
  1822 ;;		On exit  : 0/0
  1823 ;;		Unchanged: 0/0
  1824 ;; Data sizes:     COMRAM   BANK0   BANK1   BANK2   BANK3   BANK4   BANK5   BANK6   BANK7   BANK8   BANK9  BANK10  BANK1
      +1  BANK12
  1825 ;;      Params:         0       0       0       0       0       0       0       0       0       0       0       0       
      +0       0
  1826 ;;      Locals:         0       0       0       0       0       0       0       0       0       0       0       0       
      +0       0
  1827 ;;      Temps:          0       0       0       0       0       0       0       0       0       0       0       0       
      +0       0
  1828 ;;      Totals:         0       0       0       0       0       0       0       0       0       0       0       0       
      +0       0
  1829 ;;Total ram usage:        0 bytes
  1830 ;; Hardware stack levels used:    1
  1831 ;; Hardware stack levels required when called:    2
  1832 ;; This function calls:
  1833 ;;		Nothing
  1834 ;; This function is called by:
  1835 ;;		_main
  1836 ;; This function uses a non-reentrant model
  1837 ;;
  1838                           
  1839                           	psect	text8
  1840  0019B6                     __ptext8:
  1841                           	opt callstack 0
  1842  0019B6                     _PROCESO_LEDS:
  1843                           	opt callstack 28
  1844  0019B6  9A8A               	bcf	138,5,c	;volatile
  1845  0019B8  9C8A               	bcf	138,6,c	;volatile
  1846  0019BA  8E8A               	bsf	138,7,c	;volatile
  1847  0019BC  0012               	return		;funcret
  1848  0019BE                     __end_of_PROCESO_LEDS:
  1849                           	opt callstack 0
  1850                           
  1851 ;; *************** function _PROCESO *****************
  1852 ;; Defined at:
  1853 ;;		line 24 in file "MENSAJES.c"
  1854 ;; Parameters:    Size  Location     Type
  1855 ;;		None
  1856 ;; Auto vars:     Size  Location     Type
  1857 ;;		None
  1858 ;; Return value:  Size  Location     Type
  1859 ;;                  1    wreg      void 
  1860 ;; Registers used:
  1861 ;;		wreg, status,2, status,0, tblptrl, tblptrh, tblptru, cstack
  1862 ;; Tracked objects:
  1863 ;;		On entry : 0/0
  1864 ;;		On exit  : 0/0
  1865 ;;		Unchanged: 0/0
  1866 ;; Data sizes:     COMRAM   BANK0   BANK1   BANK2   BANK3   BANK4   BANK5   BANK6   BANK7   BANK8   BANK9  BANK10  BANK1
      +1  BANK12
  1867 ;;      Params:         0       0       0       0       0       0       0       0       0       0       0       0       
      +0       0
  1868 ;;      Locals:         0       0       0       0       0       0       0       0       0       0       0       0       
      +0       0
  1869 ;;      Temps:          0       0       0       0       0       0       0       0       0       0       0       0       
      +0       0
  1870 ;;      Totals:         0       0       0       0       0       0       0       0       0       0       0       0       
      +0       0
  1871 ;;Total ram usage:        0 bytes
  1872 ;; Hardware stack levels used:    1
  1873 ;; Hardware stack levels required when called:    4
  1874 ;; This function calls:
  1875 ;;		_SEND_STRING
  1876 ;;		_SEND_UART
  1877 ;; This function is called by:
  1878 ;;		_main
  1879 ;; This function uses a non-reentrant model
  1880 ;;
  1881                           
  1882                           	psect	text9
  1883  0018FA                     __ptext9:
  1884                           	opt callstack 0
  1885  0018FA                     _PROCESO:
  1886                           	opt callstack 26
  1887  0018FA                     
  1888                           ;MENSAJES.c: 25:     SEND_UART(10);
  1889  0018FA  0E0A               	movlw	10
  1890  0018FC  ECB1  F00C         	call	_SEND_UART
  1891  001900                     
  1892                           ;MENSAJES.c: 26:     SEND_STRING("En proceso");
  1893  001900  0E47               	movlw	low STR_4
  1894  001902  6E07               	movwf	SEND_STRING@PointString^0,c
  1895  001904  0E0D               	movlw	high STR_4
  1896  001906  6E08               	movwf	(SEND_STRING@PointString+1)^0,c
  1897  001908  ECB2  F009         	call	_SEND_STRING	;wreg free
  1898  00190C                     
  1899                           ;MENSAJES.c: 27:     SEND_UART(13);
  1900  00190C  0E0D               	movlw	13
  1901  00190E  ECB1  F00C         	call	_SEND_UART
  1902  001912  0012               	return		;funcret
  1903  001914                     __end_of_PROCESO:
  1904                           	opt callstack 0
  1905                           
  1906 ;; *************** function _MOV_R_PASOS_Y *****************
  1907 ;; Defined at:
  1908 ;;		line 51 in file "STEP_MOTOR.c"
  1909 ;; Parameters:    Size  Location     Type
  1910 ;;  posicion        2    5[COMRAM] unsigned short 
  1911 ;;  coordenada      2    7[COMRAM] unsigned short 
  1912 ;; Auto vars:     Size  Location     Type
  1913 ;;  i               1    9[COMRAM] unsigned char 
  1914 ;; Return value:  Size  Location     Type
  1915 ;;                  2    5[COMRAM] unsigned short 
  1916 ;; Registers used:
  1917 ;;		wreg, status,2, status,0
  1918 ;; Tracked objects:
  1919 ;;		On entry : 0/0
  1920 ;;		On exit  : 0/0
  1921 ;;		Unchanged: 0/0
  1922 ;; Data sizes:     COMRAM   BANK0   BANK1   BANK2   BANK3   BANK4   BANK5   BANK6   BANK7   BANK8   BANK9  BANK10  BANK1
      +1  BANK12
  1923 ;;      Params:         4       0       0       0       0       0       0       0       0       0       0       0       
      +0       0
  1924 ;;      Locals:         1       0       0       0       0       0       0       0       0       0       0       0       
      +0       0
  1925 ;;      Temps:          0       0       0       0       0       0       0       0       0       0       0       0       
      +0       0
  1926 ;;      Totals:         5       0       0       0       0       0       0       0       0       0       0       0       
      +0       0
  1927 ;;Total ram usage:        5 bytes
  1928 ;; Hardware stack levels used:    1
  1929 ;; Hardware stack levels required when called:    2
  1930 ;; This function calls:
  1931 ;;		Nothing
  1932 ;; This function is called by:
  1933 ;;		_main
  1934 ;; This function uses a non-reentrant model
  1935 ;;
  1936                           
  1937                           	psect	text10
  1938  0016C4                     __ptext10:
  1939                           	opt callstack 0
  1940  0016C4                     _MOV_R_PASOS_Y:
  1941                           	opt callstack 28
  1942  0016C4                     
  1943                           ;STEP_MOTOR.c: 52:     if (posicion < coordenada) {
  1944  0016C4  5008               	movf	MOV_R_PASOS_Y@coordenada^0,w,c
  1945  0016C6  5C06               	subwf	MOV_R_PASOS_Y@posicion^0,w,c
  1946  0016C8  5009               	movf	(MOV_R_PASOS_Y@coordenada+1)^0,w,c
  1947  0016CA  5807               	subwfb	(MOV_R_PASOS_Y@posicion+1)^0,w,c
  1948  0016CC  B0D8               	btfsc	status,0,c
  1949  0016CE  EF6B  F00B         	goto	u831
  1950  0016D2  EF6D  F00B         	goto	u830
  1951  0016D6                     u831:
  1952  0016D6  EF9C  F00B         	goto	l144
  1953  0016DA                     u830:
  1954  0016DA                     
  1955                           ;STEP_MOTOR.c: 53:         PORTDbits.RD2 = 0;
  1956  0016DA  9483               	bcf	131,2,c	;volatile
  1957                           
  1958                           ;STEP_MOTOR.c: 54:         PORTDbits.RD3 = 1;
  1959  0016DC  8683               	bsf	131,3,c	;volatile
  1960                           
  1961                           ;STEP_MOTOR.c: 55:         for (; posicion < coordenada; posicion++) {
  1962  0016DE  EF88  F00B         	goto	l1742
  1963  0016E2                     l1728:
  1964                           
  1965                           ;STEP_MOTOR.c: 56:             for (unsigned char i = 0; i < 5; i++) {
  1966  0016E2  0E00               	movlw	0
  1967  0016E4  6E0A               	movwf	MOV_R_PASOS_Y@i^0,c
  1968  0016E6                     l141:
  1969                           
  1970                           ;STEP_MOTOR.c: 57:                 PORTCbits.RC2 = 1;
  1971  0016E6  8482               	bsf	130,2,c	;volatile
  1972  0016E8                     
  1973                           ;STEP_MOTOR.c: 58:                 _delay((unsigned long)((1)*(4000000/4000.0)));
  1974  0016E8  0EC8               	movlw	200
  1975  0016EA                     u1427:
  1976  0016EA  D000               	nop2	
  1977  0016EC  2EE8               	decfsz	wreg,f,c
  1978  0016EE  D7FD               	bra	u1427
  1979  0016F0                     
  1980                           ;STEP_MOTOR.c: 59:                 PORTCbits.RC2 = 0;
  1981  0016F0  9482               	bcf	130,2,c	;volatile
  1982                           
  1983                           ;STEP_MOTOR.c: 60:                 _delay((unsigned long)((1)*(4000000/4000.0)));
  1984  0016F2  0EC8               	movlw	200
  1985  0016F4                     u1437:
  1986  0016F4  D000               	nop2	
  1987  0016F6  2EE8               	decfsz	wreg,f,c
  1988  0016F8  D7FD               	bra	u1437
  1989  0016FA                     
  1990                           ;STEP_MOTOR.c: 61:             }
  1991  0016FA  2A0A               	incf	MOV_R_PASOS_Y@i^0,f,c
  1992  0016FC  0E04               	movlw	4
  1993  0016FE  640A               	cpfsgt	MOV_R_PASOS_Y@i^0,c
  1994  001700  EF84  F00B         	goto	u841
  1995  001704  EF86  F00B         	goto	u840
  1996  001708                     u841:
  1997  001708  EF73  F00B         	goto	l141
  1998  00170C                     u840:
  1999  00170C                     
  2000                           ;STEP_MOTOR.c: 62:         }
  2001  00170C  4A06               	infsnz	MOV_R_PASOS_Y@posicion^0,f,c
  2002  00170E  2A07               	incf	(MOV_R_PASOS_Y@posicion+1)^0,f,c
  2003  001710                     l1742:
  2004  001710  5008               	movf	MOV_R_PASOS_Y@coordenada^0,w,c
  2005  001712  5C06               	subwf	MOV_R_PASOS_Y@posicion^0,w,c
  2006  001714  5009               	movf	(MOV_R_PASOS_Y@coordenada+1)^0,w,c
  2007  001716  5807               	subwfb	(MOV_R_PASOS_Y@posicion+1)^0,w,c
  2008  001718  A0D8               	btfss	status,0,c
  2009  00171A  EF91  F00B         	goto	u851
  2010  00171E  EF93  F00B         	goto	u850
  2011  001722                     u851:
  2012  001722  EF71  F00B         	goto	l1728
  2013  001726                     u850:
  2014  001726                     
  2015                           ;STEP_MOTOR.c: 63:         PORTDbits.RD2 = 1;
  2016  001726  8483               	bsf	131,2,c	;volatile
  2017                           
  2018                           ;STEP_MOTOR.c: 64:         posicion = coordenada;
  2019  001728  C008  F006         	movff	MOV_R_PASOS_Y@coordenada,MOV_R_PASOS_Y@posicion
  2020  00172C  C009  F007         	movff	MOV_R_PASOS_Y@coordenada+1,MOV_R_PASOS_Y@posicion+1
  2021                           
  2022                           ;STEP_MOTOR.c: 65:         return posicion;
  2023  001730  C006  F006         	movff	MOV_R_PASOS_Y@posicion,?_MOV_R_PASOS_Y
  2024  001734  C007  F007         	movff	MOV_R_PASOS_Y@posicion+1,?_MOV_R_PASOS_Y+1
  2025  001738                     l144:
  2026  001738  0012               	return		;funcret
  2027  00173A                     __end_of_MOV_R_PASOS_Y:
  2028                           	opt callstack 0
  2029                           
  2030 ;; *************** function _MOV_R_PASOS_X *****************
  2031 ;; Defined at:
  2032 ;;		line 15 in file "STEP_MOTOR.c"
  2033 ;; Parameters:    Size  Location     Type
  2034 ;;  posicion        2    5[COMRAM] unsigned short 
  2035 ;;  coordenada      2    7[COMRAM] unsigned short 
  2036 ;; Auto vars:     Size  Location     Type
  2037 ;;  i               1    9[COMRAM] unsigned char 
  2038 ;; Return value:  Size  Location     Type
  2039 ;;                  2    5[COMRAM] unsigned short 
  2040 ;; Registers used:
  2041 ;;		wreg, status,2, status,0
  2042 ;; Tracked objects:
  2043 ;;		On entry : 0/0
  2044 ;;		On exit  : 0/0
  2045 ;;		Unchanged: 0/0
  2046 ;; Data sizes:     COMRAM   BANK0   BANK1   BANK2   BANK3   BANK4   BANK5   BANK6   BANK7   BANK8   BANK9  BANK10  BANK1
      +1  BANK12
  2047 ;;      Params:         4       0       0       0       0       0       0       0       0       0       0       0       
      +0       0
  2048 ;;      Locals:         1       0       0       0       0       0       0       0       0       0       0       0       
      +0       0
  2049 ;;      Temps:          0       0       0       0       0       0       0       0       0       0       0       0       
      +0       0
  2050 ;;      Totals:         5       0       0       0       0       0       0       0       0       0       0       0       
      +0       0
  2051 ;;Total ram usage:        5 bytes
  2052 ;; Hardware stack levels used:    1
  2053 ;; Hardware stack levels required when called:    2
  2054 ;; This function calls:
  2055 ;;		Nothing
  2056 ;; This function is called by:
  2057 ;;		_main
  2058 ;; This function uses a non-reentrant model
  2059 ;;
  2060                           
  2061                           	psect	text11
  2062  00173A                     __ptext11:
  2063                           	opt callstack 0
  2064  00173A                     _MOV_R_PASOS_X:
  2065                           	opt callstack 28
  2066  00173A                     
  2067                           ;STEP_MOTOR.c: 16:     if (posicion < coordenada) {
  2068  00173A  5008               	movf	MOV_R_PASOS_X@coordenada^0,w,c
  2069  00173C  5C06               	subwf	MOV_R_PASOS_X@posicion^0,w,c
  2070  00173E  5009               	movf	(MOV_R_PASOS_X@coordenada+1)^0,w,c
  2071  001740  5807               	subwfb	(MOV_R_PASOS_X@posicion+1)^0,w,c
  2072  001742  B0D8               	btfsc	status,0,c
  2073  001744  EFA6  F00B         	goto	u771
  2074  001748  EFA8  F00B         	goto	u770
  2075  00174C                     u771:
  2076  00174C  EFD7  F00B         	goto	l126
  2077  001750                     u770:
  2078  001750                     
  2079                           ;STEP_MOTOR.c: 17:         PORTDbits.RD0 = 0;
  2080  001750  9083               	bcf	131,0,c	;volatile
  2081                           
  2082                           ;STEP_MOTOR.c: 18:         PORTDbits.RD1 = 1;
  2083  001752  8283               	bsf	131,1,c	;volatile
  2084                           
  2085                           ;STEP_MOTOR.c: 19:         for (; posicion < coordenada; posicion++) {
  2086  001754  EFC3  F00B         	goto	l1702
  2087  001758                     l1688:
  2088                           
  2089                           ;STEP_MOTOR.c: 20:             for (unsigned char i = 0; i < 5; i++) {
  2090  001758  0E00               	movlw	0
  2091  00175A  6E0A               	movwf	MOV_R_PASOS_X@i^0,c
  2092  00175C                     l123:
  2093                           
  2094                           ;STEP_MOTOR.c: 21:                 PORTCbits.RC1 = 1;
  2095  00175C  8282               	bsf	130,1,c	;volatile
  2096  00175E                     
  2097                           ;STEP_MOTOR.c: 22:                 _delay((unsigned long)((1)*(4000000/4000.0)));
  2098  00175E  0EC8               	movlw	200
  2099  001760                     u1447:
  2100  001760  D000               	nop2	
  2101  001762  2EE8               	decfsz	wreg,f,c
  2102  001764  D7FD               	bra	u1447
  2103  001766                     
  2104                           ;STEP_MOTOR.c: 23:                 PORTCbits.RC1 = 0;
  2105  001766  9282               	bcf	130,1,c	;volatile
  2106                           
  2107                           ;STEP_MOTOR.c: 24:                 _delay((unsigned long)((1)*(4000000/4000.0)));
  2108  001768  0EC8               	movlw	200
  2109  00176A                     u1457:
  2110  00176A  D000               	nop2	
  2111  00176C  2EE8               	decfsz	wreg,f,c
  2112  00176E  D7FD               	bra	u1457
  2113  001770                     
  2114                           ;STEP_MOTOR.c: 25:             }
  2115  001770  2A0A               	incf	MOV_R_PASOS_X@i^0,f,c
  2116  001772  0E04               	movlw	4
  2117  001774  640A               	cpfsgt	MOV_R_PASOS_X@i^0,c
  2118  001776  EFBF  F00B         	goto	u781
  2119  00177A  EFC1  F00B         	goto	u780
  2120  00177E                     u781:
  2121  00177E  EFAE  F00B         	goto	l123
  2122  001782                     u780:
  2123  001782                     
  2124                           ;STEP_MOTOR.c: 26:         }
  2125  001782  4A06               	infsnz	MOV_R_PASOS_X@posicion^0,f,c
  2126  001784  2A07               	incf	(MOV_R_PASOS_X@posicion+1)^0,f,c
  2127  001786                     l1702:
  2128  001786  5008               	movf	MOV_R_PASOS_X@coordenada^0,w,c
  2129  001788  5C06               	subwf	MOV_R_PASOS_X@posicion^0,w,c
  2130  00178A  5009               	movf	(MOV_R_PASOS_X@coordenada+1)^0,w,c
  2131  00178C  5807               	subwfb	(MOV_R_PASOS_X@posicion+1)^0,w,c
  2132  00178E  A0D8               	btfss	status,0,c
  2133  001790  EFCC  F00B         	goto	u791
  2134  001794  EFCE  F00B         	goto	u790
  2135  001798                     u791:
  2136  001798  EFAC  F00B         	goto	l1688
  2137  00179C                     u790:
  2138  00179C                     
  2139                           ;STEP_MOTOR.c: 27:         PORTDbits.RD0 = 1;
  2140  00179C  8083               	bsf	131,0,c	;volatile
  2141                           
  2142                           ;STEP_MOTOR.c: 28:         posicion = coordenada;
  2143  00179E  C008  F006         	movff	MOV_R_PASOS_X@coordenada,MOV_R_PASOS_X@posicion
  2144  0017A2  C009  F007         	movff	MOV_R_PASOS_X@coordenada+1,MOV_R_PASOS_X@posicion+1
  2145                           
  2146                           ;STEP_MOTOR.c: 29:         return posicion;
  2147  0017A6  C006  F006         	movff	MOV_R_PASOS_X@posicion,?_MOV_R_PASOS_X
  2148  0017AA  C007  F007         	movff	MOV_R_PASOS_X@posicion+1,?_MOV_R_PASOS_X+1
  2149  0017AE                     l126:
  2150  0017AE  0012               	return		;funcret
  2151  0017B0                     __end_of_MOV_R_PASOS_X:
  2152                           	opt callstack 0
  2153                           
  2154 ;; *************** function _MOV_L_PASOS_Y *****************
  2155 ;; Defined at:
  2156 ;;		line 69 in file "STEP_MOTOR.c"
  2157 ;; Parameters:    Size  Location     Type
  2158 ;;  posicion        2    5[COMRAM] unsigned short 
  2159 ;;  coordenada      2    7[COMRAM] unsigned short 
  2160 ;; Auto vars:     Size  Location     Type
  2161 ;;  i               1    9[COMRAM] unsigned char 
  2162 ;; Return value:  Size  Location     Type
  2163 ;;                  2    5[COMRAM] unsigned short 
  2164 ;; Registers used:
  2165 ;;		wreg, status,2, status,0
  2166 ;; Tracked objects:
  2167 ;;		On entry : 0/0
  2168 ;;		On exit  : 0/0
  2169 ;;		Unchanged: 0/0
  2170 ;; Data sizes:     COMRAM   BANK0   BANK1   BANK2   BANK3   BANK4   BANK5   BANK6   BANK7   BANK8   BANK9  BANK10  BANK1
      +1  BANK12
  2171 ;;      Params:         4       0       0       0       0       0       0       0       0       0       0       0       
      +0       0
  2172 ;;      Locals:         1       0       0       0       0       0       0       0       0       0       0       0       
      +0       0
  2173 ;;      Temps:          0       0       0       0       0       0       0       0       0       0       0       0       
      +0       0
  2174 ;;      Totals:         5       0       0       0       0       0       0       0       0       0       0       0       
      +0       0
  2175 ;;Total ram usage:        5 bytes
  2176 ;; Hardware stack levels used:    1
  2177 ;; Hardware stack levels required when called:    2
  2178 ;; This function calls:
  2179 ;;		Nothing
  2180 ;; This function is called by:
  2181 ;;		_main
  2182 ;; This function uses a non-reentrant model
  2183 ;;
  2184                           
  2185                           	psect	text12
  2186  0015D4                     __ptext12:
  2187                           	opt callstack 0
  2188  0015D4                     _MOV_L_PASOS_Y:
  2189                           	opt callstack 28
  2190  0015D4                     
  2191                           ;STEP_MOTOR.c: 70:     if (posicion > coordenada) {
  2192  0015D4  5006               	movf	MOV_L_PASOS_Y@posicion^0,w,c
  2193  0015D6  5C08               	subwf	MOV_L_PASOS_Y@coordenada^0,w,c
  2194  0015D8  5007               	movf	(MOV_L_PASOS_Y@posicion+1)^0,w,c
  2195  0015DA  5809               	subwfb	(MOV_L_PASOS_Y@coordenada+1)^0,w,c
  2196  0015DC  B0D8               	btfsc	status,0,c
  2197  0015DE  EFF3  F00A         	goto	u861
  2198  0015E2  EFF5  F00A         	goto	u860
  2199  0015E6                     u861:
  2200  0015E6  EF25  F00B         	goto	l153
  2201  0015EA                     u860:
  2202  0015EA                     
  2203                           ;STEP_MOTOR.c: 71:         PORTDbits.RD2 = 0;
  2204  0015EA  9483               	bcf	131,2,c	;volatile
  2205                           
  2206                           ;STEP_MOTOR.c: 72:         PORTDbits.RD3 = 0;
  2207  0015EC  9683               	bcf	131,3,c	;volatile
  2208                           
  2209                           ;STEP_MOTOR.c: 73:         for (; posicion > coordenada; posicion--) {
  2210  0015EE  EF11  F00B         	goto	l1762
  2211  0015F2                     l1748:
  2212                           
  2213                           ;STEP_MOTOR.c: 74:             for (unsigned char i = 0; i < 5; i++) {
  2214  0015F2  0E00               	movlw	0
  2215  0015F4  6E0A               	movwf	MOV_L_PASOS_Y@i^0,c
  2216  0015F6                     l150:
  2217                           
  2218                           ;STEP_MOTOR.c: 75:                 PORTCbits.RC2 = 1;
  2219  0015F6  8482               	bsf	130,2,c	;volatile
  2220  0015F8                     
  2221                           ;STEP_MOTOR.c: 76:                 _delay((unsigned long)((1)*(4000000/4000.0)));
  2222  0015F8  0EC8               	movlw	200
  2223  0015FA                     u1467:
  2224  0015FA  D000               	nop2	
  2225  0015FC  2EE8               	decfsz	wreg,f,c
  2226  0015FE  D7FD               	bra	u1467
  2227  001600                     
  2228                           ;STEP_MOTOR.c: 77:                 PORTCbits.RC2 = 0;
  2229  001600  9482               	bcf	130,2,c	;volatile
  2230                           
  2231                           ;STEP_MOTOR.c: 78:                 _delay((unsigned long)((1)*(4000000/4000.0)));
  2232  001602  0EC8               	movlw	200
  2233  001604                     u1477:
  2234  001604  D000               	nop2	
  2235  001606  2EE8               	decfsz	wreg,f,c
  2236  001608  D7FD               	bra	u1477
  2237  00160A                     
  2238                           ;STEP_MOTOR.c: 79:             }
  2239  00160A  2A0A               	incf	MOV_L_PASOS_Y@i^0,f,c
  2240  00160C  0E04               	movlw	4
  2241  00160E  640A               	cpfsgt	MOV_L_PASOS_Y@i^0,c
  2242  001610  EF0C  F00B         	goto	u871
  2243  001614  EF0E  F00B         	goto	u870
  2244  001618                     u871:
  2245  001618  EFFB  F00A         	goto	l150
  2246  00161C                     u870:
  2247  00161C                     
  2248                           ;STEP_MOTOR.c: 80:         }
  2249  00161C  0606               	decf	MOV_L_PASOS_Y@posicion^0,f,c
  2250  00161E  A0D8               	btfss	status,0,c
  2251  001620  0607               	decf	(MOV_L_PASOS_Y@posicion+1)^0,f,c
  2252  001622                     l1762:
  2253  001622  5006               	movf	MOV_L_PASOS_Y@posicion^0,w,c
  2254  001624  5C08               	subwf	MOV_L_PASOS_Y@coordenada^0,w,c
  2255  001626  5007               	movf	(MOV_L_PASOS_Y@posicion+1)^0,w,c
  2256  001628  5809               	subwfb	(MOV_L_PASOS_Y@coordenada+1)^0,w,c
  2257  00162A  A0D8               	btfss	status,0,c
  2258  00162C  EF1A  F00B         	goto	u881
  2259  001630  EF1C  F00B         	goto	u880
  2260  001634                     u881:
  2261  001634  EFF9  F00A         	goto	l1748
  2262  001638                     u880:
  2263  001638                     
  2264                           ;STEP_MOTOR.c: 81:         PORTDbits.RD2 = 1;
  2265  001638  8483               	bsf	131,2,c	;volatile
  2266                           
  2267                           ;STEP_MOTOR.c: 82:         posicion = coordenada;
  2268  00163A  C008  F006         	movff	MOV_L_PASOS_Y@coordenada,MOV_L_PASOS_Y@posicion
  2269  00163E  C009  F007         	movff	MOV_L_PASOS_Y@coordenada+1,MOV_L_PASOS_Y@posicion+1
  2270                           
  2271                           ;STEP_MOTOR.c: 83:         return posicion;
  2272  001642  C006  F006         	movff	MOV_L_PASOS_Y@posicion,?_MOV_L_PASOS_Y
  2273  001646  C007  F007         	movff	MOV_L_PASOS_Y@posicion+1,?_MOV_L_PASOS_Y+1
  2274  00164A                     l153:
  2275  00164A  0012               	return		;funcret
  2276  00164C                     __end_of_MOV_L_PASOS_Y:
  2277                           	opt callstack 0
  2278                           
  2279 ;; *************** function _MOV_L_PASOS_X *****************
  2280 ;; Defined at:
  2281 ;;		line 33 in file "STEP_MOTOR.c"
  2282 ;; Parameters:    Size  Location     Type
  2283 ;;  posicion        2    5[COMRAM] unsigned short 
  2284 ;;  coordenada      2    7[COMRAM] unsigned short 
  2285 ;; Auto vars:     Size  Location     Type
  2286 ;;  i               1    9[COMRAM] unsigned char 
  2287 ;; Return value:  Size  Location     Type
  2288 ;;                  2    5[COMRAM] unsigned short 
  2289 ;; Registers used:
  2290 ;;		wreg, status,2, status,0
  2291 ;; Tracked objects:
  2292 ;;		On entry : 0/0
  2293 ;;		On exit  : 0/0
  2294 ;;		Unchanged: 0/0
  2295 ;; Data sizes:     COMRAM   BANK0   BANK1   BANK2   BANK3   BANK4   BANK5   BANK6   BANK7   BANK8   BANK9  BANK10  BANK1
      +1  BANK12
  2296 ;;      Params:         4       0       0       0       0       0       0       0       0       0       0       0       
      +0       0
  2297 ;;      Locals:         1       0       0       0       0       0       0       0       0       0       0       0       
      +0       0
  2298 ;;      Temps:          0       0       0       0       0       0       0       0       0       0       0       0       
      +0       0
  2299 ;;      Totals:         5       0       0       0       0       0       0       0       0       0       0       0       
      +0       0
  2300 ;;Total ram usage:        5 bytes
  2301 ;; Hardware stack levels used:    1
  2302 ;; Hardware stack levels required when called:    2
  2303 ;; This function calls:
  2304 ;;		Nothing
  2305 ;; This function is called by:
  2306 ;;		_main
  2307 ;; This function uses a non-reentrant model
  2308 ;;
  2309                           
  2310                           	psect	text13
  2311  00164C                     __ptext13:
  2312                           	opt callstack 0
  2313  00164C                     _MOV_L_PASOS_X:
  2314                           	opt callstack 28
  2315  00164C                     
  2316                           ;STEP_MOTOR.c: 34:     if (posicion > coordenada) {
  2317  00164C  5006               	movf	MOV_L_PASOS_X@posicion^0,w,c
  2318  00164E  5C08               	subwf	MOV_L_PASOS_X@coordenada^0,w,c
  2319  001650  5007               	movf	(MOV_L_PASOS_X@posicion+1)^0,w,c
  2320  001652  5809               	subwfb	(MOV_L_PASOS_X@coordenada+1)^0,w,c
  2321  001654  B0D8               	btfsc	status,0,c
  2322  001656  EF2F  F00B         	goto	u801
  2323  00165A  EF31  F00B         	goto	u800
  2324  00165E                     u801:
  2325  00165E  EF61  F00B         	goto	l135
  2326  001662                     u800:
  2327  001662                     
  2328                           ;STEP_MOTOR.c: 35:         PORTDbits.RD0 = 0;
  2329  001662  9083               	bcf	131,0,c	;volatile
  2330                           
  2331                           ;STEP_MOTOR.c: 36:         PORTDbits.RD1 = 0;
  2332  001664  9283               	bcf	131,1,c	;volatile
  2333                           
  2334                           ;STEP_MOTOR.c: 37:         for (; posicion > coordenada; posicion--) {
  2335  001666  EF4D  F00B         	goto	l1722
  2336  00166A                     l1708:
  2337                           
  2338                           ;STEP_MOTOR.c: 38:             for (unsigned char i = 0; i < 5; i++) {
  2339  00166A  0E00               	movlw	0
  2340  00166C  6E0A               	movwf	MOV_L_PASOS_X@i^0,c
  2341  00166E                     l132:
  2342                           
  2343                           ;STEP_MOTOR.c: 39:                 PORTCbits.RC1 = 1;
  2344  00166E  8282               	bsf	130,1,c	;volatile
  2345  001670                     
  2346                           ;STEP_MOTOR.c: 40:                 _delay((unsigned long)((1)*(4000000/4000.0)));
  2347  001670  0EC8               	movlw	200
  2348  001672                     u1487:
  2349  001672  D000               	nop2	
  2350  001674  2EE8               	decfsz	wreg,f,c
  2351  001676  D7FD               	bra	u1487
  2352  001678                     
  2353                           ;STEP_MOTOR.c: 41:                 PORTCbits.RC1 = 0;
  2354  001678  9282               	bcf	130,1,c	;volatile
  2355                           
  2356                           ;STEP_MOTOR.c: 42:                 _delay((unsigned long)((1)*(4000000/4000.0)));
  2357  00167A  0EC8               	movlw	200
  2358  00167C                     u1497:
  2359  00167C  D000               	nop2	
  2360  00167E  2EE8               	decfsz	wreg,f,c
  2361  001680  D7FD               	bra	u1497
  2362  001682                     
  2363                           ;STEP_MOTOR.c: 43:             }
  2364  001682  2A0A               	incf	MOV_L_PASOS_X@i^0,f,c
  2365  001684  0E04               	movlw	4
  2366  001686  640A               	cpfsgt	MOV_L_PASOS_X@i^0,c
  2367  001688  EF48  F00B         	goto	u811
  2368  00168C  EF4A  F00B         	goto	u810
  2369  001690                     u811:
  2370  001690  EF37  F00B         	goto	l132
  2371  001694                     u810:
  2372  001694                     
  2373                           ;STEP_MOTOR.c: 44:         }
  2374  001694  0606               	decf	MOV_L_PASOS_X@posicion^0,f,c
  2375  001696  A0D8               	btfss	status,0,c
  2376  001698  0607               	decf	(MOV_L_PASOS_X@posicion+1)^0,f,c
  2377  00169A                     l1722:
  2378  00169A  5006               	movf	MOV_L_PASOS_X@posicion^0,w,c
  2379  00169C  5C08               	subwf	MOV_L_PASOS_X@coordenada^0,w,c
  2380  00169E  5007               	movf	(MOV_L_PASOS_X@posicion+1)^0,w,c
  2381  0016A0  5809               	subwfb	(MOV_L_PASOS_X@coordenada+1)^0,w,c
  2382  0016A2  A0D8               	btfss	status,0,c
  2383  0016A4  EF56  F00B         	goto	u821
  2384  0016A8  EF58  F00B         	goto	u820
  2385  0016AC                     u821:
  2386  0016AC  EF35  F00B         	goto	l1708
  2387  0016B0                     u820:
  2388  0016B0                     
  2389                           ;STEP_MOTOR.c: 45:         PORTDbits.RD0 = 1;
  2390  0016B0  8083               	bsf	131,0,c	;volatile
  2391                           
  2392                           ;STEP_MOTOR.c: 46:         posicion = coordenada;
  2393  0016B2  C008  F006         	movff	MOV_L_PASOS_X@coordenada,MOV_L_PASOS_X@posicion
  2394  0016B6  C009  F007         	movff	MOV_L_PASOS_X@coordenada+1,MOV_L_PASOS_X@posicion+1
  2395                           
  2396                           ;STEP_MOTOR.c: 47:         return posicion;
  2397  0016BA  C006  F006         	movff	MOV_L_PASOS_X@posicion,?_MOV_L_PASOS_X
  2398  0016BE  C007  F007         	movff	MOV_L_PASOS_X@posicion+1,?_MOV_L_PASOS_X+1
  2399  0016C2                     l135:
  2400  0016C2  0012               	return		;funcret
  2401  0016C4                     __end_of_MOV_L_PASOS_X:
  2402                           	opt callstack 0
  2403                           
  2404 ;; *************** function _LEDS_OFF *****************
  2405 ;; Defined at:
  2406 ;;		line 11 in file "LEDS.c"
  2407 ;; Parameters:    Size  Location     Type
  2408 ;;		None
  2409 ;; Auto vars:     Size  Location     Type
  2410 ;;		None
  2411 ;; Return value:  Size  Location     Type
  2412 ;;                  1    wreg      void 
  2413 ;; Registers used:
  2414 ;;		None
  2415 ;; Tracked objects:
  2416 ;;		On entry : 0/0
  2417 ;;		On exit  : 0/0
  2418 ;;		Unchanged: 0/0
  2419 ;; Data sizes:     COMRAM   BANK0   BANK1   BANK2   BANK3   BANK4   BANK5   BANK6   BANK7   BANK8   BANK9  BANK10  BANK1
      +1  BANK12
  2420 ;;      Params:         0       0       0       0       0       0       0       0       0       0       0       0       
      +0       0
  2421 ;;      Locals:         0       0       0       0       0       0       0       0       0       0       0       0       
      +0       0
  2422 ;;      Temps:          0       0       0       0       0       0       0       0       0       0       0       0       
      +0       0
  2423 ;;      Totals:         0       0       0       0       0       0       0       0       0       0       0       0       
      +0       0
  2424 ;;Total ram usage:        0 bytes
  2425 ;; Hardware stack levels used:    1
  2426 ;; Hardware stack levels required when called:    2
  2427 ;; This function calls:
  2428 ;;		Nothing
  2429 ;; This function is called by:
  2430 ;;		_main
  2431 ;; This function uses a non-reentrant model
  2432 ;;
  2433                           
  2434                           	psect	text14
  2435  0019BE                     __ptext14:
  2436                           	opt callstack 0
  2437  0019BE                     _LEDS_OFF:
  2438                           	opt callstack 28
  2439  0019BE  9A8A               	bcf	138,5,c	;volatile
  2440  0019C0  9C8A               	bcf	138,6,c	;volatile
  2441  0019C2  9E8A               	bcf	138,7,c	;volatile
  2442  0019C4  0012               	return		;funcret
  2443  0019C6                     __end_of_LEDS_OFF:
  2444                           	opt callstack 0
  2445                           
  2446 ;; *************** function _INIT_UART *****************
  2447 ;; Defined at:
  2448 ;;		line 5 in file "UART.c"
  2449 ;; Parameters:    Size  Location     Type
  2450 ;;		None
  2451 ;; Auto vars:     Size  Location     Type
  2452 ;;		None
  2453 ;; Return value:  Size  Location     Type
  2454 ;;                  1    wreg      void 
  2455 ;; Registers used:
  2456 ;;		wreg, status,2
  2457 ;; Tracked objects:
  2458 ;;		On entry : 0/0
  2459 ;;		On exit  : 0/0
  2460 ;;		Unchanged: 0/0
  2461 ;; Data sizes:     COMRAM   BANK0   BANK1   BANK2   BANK3   BANK4   BANK5   BANK6   BANK7   BANK8   BANK9  BANK10  BANK1
      +1  BANK12
  2462 ;;      Params:         0       0       0       0       0       0       0       0       0       0       0       0       
      +0       0
  2463 ;;      Locals:         0       0       0       0       0       0       0       0       0       0       0       0       
      +0       0
  2464 ;;      Temps:          0       0       0       0       0       0       0       0       0       0       0       0       
      +0       0
  2465 ;;      Totals:         0       0       0       0       0       0       0       0       0       0       0       0       
      +0       0
  2466 ;;Total ram usage:        0 bytes
  2467 ;; Hardware stack levels used:    1
  2468 ;; Hardware stack levels required when called:    2
  2469 ;; This function calls:
  2470 ;;		Nothing
  2471 ;; This function is called by:
  2472 ;;		_main
  2473 ;; This function uses a non-reentrant model
  2474 ;;
  2475                           
  2476                           	psect	text15
  2477  001978                     __ptext15:
  2478                           	opt callstack 0
  2479  001978                     _INIT_UART:
  2480                           	opt callstack 28
  2481  001978                     
  2482                           ;UART.c: 9:     TRISCbits.TRISC7 = 1;
  2483  001978  8E94               	bsf	148,7,c	;volatile
  2484                           
  2485                           ;UART.c: 10:     TRISCbits.TRISC6 = 0;
  2486  00197A  9C94               	bcf	148,6,c	;volatile
  2487  00197C                     
  2488                           ;UART.c: 11:     TXSTA = 0b00100110;
  2489  00197C  0E26               	movlw	38
  2490  00197E  6EAC               	movwf	172,c	;volatile
  2491                           
  2492                           ;UART.c: 12:     RCSTA = 0b10010000;
  2493  001980  0E90               	movlw	144
  2494  001982  6EAB               	movwf	171,c	;volatile
  2495                           
  2496                           ;UART.c: 14:     SPBRG = 25;
  2497  001984  0E19               	movlw	25
  2498  001986  6EAF               	movwf	175,c	;volatile
  2499  001988  0012               	return		;funcret
  2500  00198A                     __end_of_INIT_UART:
  2501                           	opt callstack 0
  2502                           
  2503 ;; *************** function _INIT_STEP *****************
  2504 ;; Defined at:
  2505 ;;		line 6 in file "STEP_MOTOR.c"
  2506 ;; Parameters:    Size  Location     Type
  2507 ;;		None
  2508 ;; Auto vars:     Size  Location     Type
  2509 ;;		None
  2510 ;; Return value:  Size  Location     Type
  2511 ;;                  1    wreg      void 
  2512 ;; Registers used:
  2513 ;;		None
  2514 ;; Tracked objects:
  2515 ;;		On entry : 0/0
  2516 ;;		On exit  : 0/0
  2517 ;;		Unchanged: 0/0
  2518 ;; Data sizes:     COMRAM   BANK0   BANK1   BANK2   BANK3   BANK4   BANK5   BANK6   BANK7   BANK8   BANK9  BANK10  BANK1
      +1  BANK12
  2519 ;;      Params:         0       0       0       0       0       0       0       0       0       0       0       0       
      +0       0
  2520 ;;      Locals:         0       0       0       0       0       0       0       0       0       0       0       0       
      +0       0
  2521 ;;      Temps:          0       0       0       0       0       0       0       0       0       0       0       0       
      +0       0
  2522 ;;      Totals:         0       0       0       0       0       0       0       0       0       0       0       0       
      +0       0
  2523 ;;Total ram usage:        0 bytes
  2524 ;; Hardware stack levels used:    1
  2525 ;; Hardware stack levels required when called:    2
  2526 ;; This function calls:
  2527 ;;		Nothing
  2528 ;; This function is called by:
  2529 ;;		_main
  2530 ;; This function uses a non-reentrant model
  2531 ;;
  2532                           
  2533                           	psect	text16
  2534  00198A                     __ptext16:
  2535                           	opt callstack 0
  2536  00198A                     _INIT_STEP:
  2537                           	opt callstack 28
  2538  00198A                     
  2539                           ;STEP_MOTOR.c: 7:     TRISCbits.RC1 = 0;
  2540  00198A  9294               	bcf	148,1,c	;volatile
  2541                           
  2542                           ;STEP_MOTOR.c: 8:     TRISDbits.RD1 = 0;
  2543  00198C  9295               	bcf	149,1,c	;volatile
  2544                           
  2545                           ;STEP_MOTOR.c: 9:     TRISDbits.RD0 = 0;
  2546  00198E  9095               	bcf	149,0,c	;volatile
  2547                           
  2548                           ;STEP_MOTOR.c: 10:     TRISCbits.RC2 = 0;
  2549  001990  9494               	bcf	148,2,c	;volatile
  2550                           
  2551                           ;STEP_MOTOR.c: 11:     TRISDbits.RD3 = 0;
  2552  001992  9695               	bcf	149,3,c	;volatile
  2553                           
  2554                           ;STEP_MOTOR.c: 12:     TRISDbits.RD2 = 0;
  2555  001994  9495               	bcf	149,2,c	;volatile
  2556  001996  0012               	return		;funcret
  2557  001998                     __end_of_INIT_STEP:
  2558                           	opt callstack 0
  2559                           
  2560 ;; *************** function _INIT_LEDS *****************
  2561 ;; Defined at:
  2562 ;;		line 5 in file "LEDS.c"
  2563 ;; Parameters:    Size  Location     Type
  2564 ;;		None
  2565 ;; Auto vars:     Size  Location     Type
  2566 ;;		None
  2567 ;; Return value:  Size  Location     Type
  2568 ;;                  1    wreg      void 
  2569 ;; Registers used:
  2570 ;;		None
  2571 ;; Tracked objects:
  2572 ;;		On entry : 0/0
  2573 ;;		On exit  : 0/0
  2574 ;;		Unchanged: 0/0
  2575 ;; Data sizes:     COMRAM   BANK0   BANK1   BANK2   BANK3   BANK4   BANK5   BANK6   BANK7   BANK8   BANK9  BANK10  BANK1
      +1  BANK12
  2576 ;;      Params:         0       0       0       0       0       0       0       0       0       0       0       0       
      +0       0
  2577 ;;      Locals:         0       0       0       0       0       0       0       0       0       0       0       0       
      +0       0
  2578 ;;      Temps:          0       0       0       0       0       0       0       0       0       0       0       0       
      +0       0
  2579 ;;      Totals:         0       0       0       0       0       0       0       0       0       0       0       0       
      +0       0
  2580 ;;Total ram usage:        0 bytes
  2581 ;; Hardware stack levels used:    1
  2582 ;; Hardware stack levels required when called:    2
  2583 ;; This function calls:
  2584 ;;		Nothing
  2585 ;; This function is called by:
  2586 ;;		_main
  2587 ;; This function uses a non-reentrant model
  2588 ;;
  2589                           
  2590                           	psect	text17
  2591  0019C6                     __ptext17:
  2592                           	opt callstack 0
  2593  0019C6                     _INIT_LEDS:
  2594                           	opt callstack 28
  2595  0019C6  9A93               	bcf	147,5,c	;volatile
  2596  0019C8  9C93               	bcf	147,6,c	;volatile
  2597  0019CA  9E93               	bcf	147,7,c	;volatile
  2598  0019CC  0012               	return		;funcret
  2599  0019CE                     __end_of_INIT_LEDS:
  2600                           	opt callstack 0
  2601                           
  2602 ;; *************** function _INIT_INT *****************
  2603 ;; Defined at:
  2604 ;;		line 243 in file "SPARC_4585.c"
  2605 ;; Parameters:    Size  Location     Type
  2606 ;;		None
  2607 ;; Auto vars:     Size  Location     Type
  2608 ;;		None
  2609 ;; Return value:  Size  Location     Type
  2610 ;;                  1    wreg      void 
  2611 ;; Registers used:
  2612 ;;		None
  2613 ;; Tracked objects:
  2614 ;;		On entry : 0/0
  2615 ;;		On exit  : 0/0
  2616 ;;		Unchanged: 0/0
  2617 ;; Data sizes:     COMRAM   BANK0   BANK1   BANK2   BANK3   BANK4   BANK5   BANK6   BANK7   BANK8   BANK9  BANK10  BANK1
      +1  BANK12
  2618 ;;      Params:         0       0       0       0       0       0       0       0       0       0       0       0       
      +0       0
  2619 ;;      Locals:         0       0       0       0       0       0       0       0       0       0       0       0       
      +0       0
  2620 ;;      Temps:          0       0       0       0       0       0       0       0       0       0       0       0       
      +0       0
  2621 ;;      Totals:         0       0       0       0       0       0       0       0       0       0       0       0       
      +0       0
  2622 ;;Total ram usage:        0 bytes
  2623 ;; Hardware stack levels used:    1
  2624 ;; Hardware stack levels required when called:    2
  2625 ;; This function calls:
  2626 ;;		Nothing
  2627 ;; This function is called by:
  2628 ;;		_main
  2629 ;; This function uses a non-reentrant model
  2630 ;;
  2631                           
  2632                           	psect	text18
  2633  001866                     __ptext18:
  2634                           	opt callstack 0
  2635  001866                     _INIT_INT:
  2636                           	opt callstack 28
  2637  001866                     
  2638                           ;SPARC_4585.c: 244:     TRISBbits.RB0 = 1;
  2639  001866  8093               	bsf	147,0,c	;volatile
  2640                           
  2641                           ;SPARC_4585.c: 245:     TRISBbits.RB1 = 1;
  2642  001868  8293               	bsf	147,1,c	;volatile
  2643                           
  2644                           ;SPARC_4585.c: 246:     TRISBbits.RB2 = 1;
  2645  00186A  8493               	bsf	147,2,c	;volatile
  2646                           
  2647                           ;SPARC_4585.c: 247:     RCONbits.IPEN = 0;
  2648  00186C  9ED0               	bcf	208,7,c	;volatile
  2649                           
  2650                           ;SPARC_4585.c: 248:     INTCONbits.GIE = 1;
  2651  00186E  8EF2               	bsf	242,7,c	;volatile
  2652                           
  2653                           ;SPARC_4585.c: 249:     INTCONbits.PEIE = 0;
  2654  001870  9CF2               	bcf	242,6,c	;volatile
  2655                           
  2656                           ;SPARC_4585.c: 250:     INTCONbits.INT0IE = 1;
  2657  001872  88F2               	bsf	242,4,c	;volatile
  2658                           
  2659                           ;SPARC_4585.c: 251:     INTCONbits.INT0IF = 0;
  2660  001874  92F2               	bcf	242,1,c	;volatile
  2661                           
  2662                           ;SPARC_4585.c: 252:     INTCON2bits.INTEDG0 = 1;
  2663  001876  8CF1               	bsf	241,6,c	;volatile
  2664                           
  2665                           ;SPARC_4585.c: 253:     INTCON2bits.INTEDG1 = 1;
  2666  001878  8AF1               	bsf	241,5,c	;volatile
  2667                           
  2668                           ;SPARC_4585.c: 254:     INTCON2bits.INTEDG2 = 1;
  2669  00187A  88F1               	bsf	241,4,c	;volatile
  2670                           
  2671                           ;SPARC_4585.c: 255:     INTCON3bits.INT2IP = 1;
  2672  00187C  8EF0               	bsf	240,7,c	;volatile
  2673                           
  2674                           ;SPARC_4585.c: 256:     INTCON3bits.INT1IP = 1;
  2675  00187E  8CF0               	bsf	240,6,c	;volatile
  2676                           
  2677                           ;SPARC_4585.c: 257:     INTCON3bits.INT2IE = 1;
  2678  001880  88F0               	bsf	240,4,c	;volatile
  2679                           
  2680                           ;SPARC_4585.c: 258:     INTCON3bits.INT1IE = 1;
  2681  001882  86F0               	bsf	240,3,c	;volatile
  2682                           
  2683                           ;SPARC_4585.c: 259:     INTCON3bits.INT2IF = 0;
  2684  001884  92F0               	bcf	240,1,c	;volatile
  2685                           
  2686                           ;SPARC_4585.c: 260:     INTCON3bits.INT1IF = 0;
  2687  001886  90F0               	bcf	240,0,c	;volatile
  2688  001888  0012               	return		;funcret
  2689  00188A                     __end_of_INIT_INT:
  2690                           	opt callstack 0
  2691                           
  2692 ;; *************** function _INIT_GPIO *****************
  2693 ;; Defined at:
  2694 ;;		line 5 in file "GPIO.c"
  2695 ;; Parameters:    Size  Location     Type
  2696 ;;		None
  2697 ;; Auto vars:     Size  Location     Type
  2698 ;;		None
  2699 ;; Return value:  Size  Location     Type
  2700 ;;                  1    wreg      void 
  2701 ;; Registers used:
  2702 ;;		wreg, status,2
  2703 ;; Tracked objects:
  2704 ;;		On entry : 0/0
  2705 ;;		On exit  : 0/0
  2706 ;;		Unchanged: 0/0
  2707 ;; Data sizes:     COMRAM   BANK0   BANK1   BANK2   BANK3   BANK4   BANK5   BANK6   BANK7   BANK8   BANK9  BANK10  BANK1
      +1  BANK12
  2708 ;;      Params:         0       0       0       0       0       0       0       0       0       0       0       0       
      +0       0
  2709 ;;      Locals:         0       0       0       0       0       0       0       0       0       0       0       0       
      +0       0
  2710 ;;      Temps:          0       0       0       0       0       0       0       0       0       0       0       0       
      +0       0
  2711 ;;      Totals:         0       0       0       0       0       0       0       0       0       0       0       0       
      +0       0
  2712 ;;Total ram usage:        0 bytes
  2713 ;; Hardware stack levels used:    1
  2714 ;; Hardware stack levels required when called:    2
  2715 ;; This function calls:
  2716 ;;		Nothing
  2717 ;; This function is called by:
  2718 ;;		_main
  2719 ;; This function uses a non-reentrant model
  2720 ;;
  2721                           
  2722                           	psect	text19
  2723  001998                     __ptext19:
  2724                           	opt callstack 0
  2725  001998                     _INIT_GPIO:
  2726                           	opt callstack 28
  2727  001998                     
  2728                           ;GPIO.c: 7:     OSCCON = 0X60;
  2729  001998  0E60               	movlw	96
  2730  00199A  6ED3               	movwf	211,c	;volatile
  2731  00199C                     
  2732                           ;GPIO.c: 9:     CMCON = 0XFF;
  2733  00199C  68B4               	setf	180,c	;volatile
  2734  00199E                     
  2735                           ;GPIO.c: 10:     CVRCONbits.CVREN = 0;
  2736  00199E  9EB5               	bcf	181,7,c	;volatile
  2737                           
  2738                           ;GPIO.c: 11:     ADCON1 = 0X0F;
  2739  0019A0  0E0F               	movlw	15
  2740  0019A2  6EC1               	movwf	193,c	;volatile
  2741  0019A4  0012               	return		;funcret
  2742  0019A6                     __end_of_INIT_GPIO:
  2743                           	opt callstack 0
  2744                           
  2745 ;; *************** function _INIT_DC *****************
  2746 ;; Defined at:
  2747 ;;		line 5 in file "MOTORES_DC.c"
  2748 ;; Parameters:    Size  Location     Type
  2749 ;;		None
  2750 ;; Auto vars:     Size  Location     Type
  2751 ;;		None
  2752 ;; Return value:  Size  Location     Type
  2753 ;;                  1    wreg      void 
  2754 ;; Registers used:
  2755 ;;		None
  2756 ;; Tracked objects:
  2757 ;;		On entry : 0/0
  2758 ;;		On exit  : 0/0
  2759 ;;		Unchanged: 0/0
  2760 ;; Data sizes:     COMRAM   BANK0   BANK1   BANK2   BANK3   BANK4   BANK5   BANK6   BANK7   BANK8   BANK9  BANK10  BANK1
      +1  BANK12
  2761 ;;      Params:         0       0       0       0       0       0       0       0       0       0       0       0       
      +0       0
  2762 ;;      Locals:         0       0       0       0       0       0       0       0       0       0       0       0       
      +0       0
  2763 ;;      Temps:          0       0       0       0       0       0       0       0       0       0       0       0       
      +0       0
  2764 ;;      Totals:         0       0       0       0       0       0       0       0       0       0       0       0       
      +0       0
  2765 ;;Total ram usage:        0 bytes
  2766 ;; Hardware stack levels used:    1
  2767 ;; Hardware stack levels required when called:    2
  2768 ;; This function calls:
  2769 ;;		Nothing
  2770 ;; This function is called by:
  2771 ;;		_main
  2772 ;; This function uses a non-reentrant model
  2773 ;;
  2774                           
  2775                           	psect	text20
  2776  0019CE                     __ptext20:
  2777                           	opt callstack 0
  2778  0019CE                     _INIT_DC:
  2779                           	opt callstack 28
  2780  0019CE  9895               	bcf	149,4,c	;volatile
  2781  0019D0  9A95               	bcf	149,5,c	;volatile
  2782  0019D2  9C95               	bcf	149,6,c	;volatile
  2783  0019D4  0012               	return		;funcret
  2784  0019D6                     __end_of_INIT_DC:
  2785                           	opt callstack 0
  2786                           
  2787 ;; *************** function _INIT_BUTTONS *****************
  2788 ;; Defined at:
  2789 ;;		line 6 in file "BOTONES.c"
  2790 ;; Parameters:    Size  Location     Type
  2791 ;;		None
  2792 ;; Auto vars:     Size  Location     Type
  2793 ;;		None
  2794 ;; Return value:  Size  Location     Type
  2795 ;;                  1    wreg      void 
  2796 ;; Registers used:
  2797 ;;		None
  2798 ;; Tracked objects:
  2799 ;;		On entry : 0/0
  2800 ;;		On exit  : 0/0
  2801 ;;		Unchanged: 0/0
  2802 ;; Data sizes:     COMRAM   BANK0   BANK1   BANK2   BANK3   BANK4   BANK5   BANK6   BANK7   BANK8   BANK9  BANK10  BANK1
      +1  BANK12
  2803 ;;      Params:         0       0       0       0       0       0       0       0       0       0       0       0       
      +0       0
  2804 ;;      Locals:         0       0       0       0       0       0       0       0       0       0       0       0       
      +0       0
  2805 ;;      Temps:          0       0       0       0       0       0       0       0       0       0       0       0       
      +0       0
  2806 ;;      Totals:         0       0       0       0       0       0       0       0       0       0       0       0       
      +0       0
  2807 ;;Total ram usage:        0 bytes
  2808 ;; Hardware stack levels used:    1
  2809 ;; Hardware stack levels required when called:    2
  2810 ;; This function calls:
  2811 ;;		Nothing
  2812 ;; This function is called by:
  2813 ;;		_main
  2814 ;; This function uses a non-reentrant model
  2815 ;;
  2816                           
  2817                           	psect	text21
  2818  0019D6                     __ptext21:
  2819                           	opt callstack 0
  2820  0019D6                     _INIT_BUTTONS:
  2821                           	opt callstack 28
  2822  0019D6  8894               	bsf	148,4,c	;volatile
  2823  0019D8  8A94               	bsf	148,5,c	;volatile
  2824  0019DA  8A92               	bsf	146,5,c	;volatile
  2825  0019DC  0012               	return		;funcret
  2826  0019DE                     __end_of_INIT_BUTTONS:
  2827                           	opt callstack 0
  2828                           
  2829 ;; *************** function _FALTA_DATO *****************
  2830 ;; Defined at:
  2831 ;;		line 30 in file "MENSAJES.c"
  2832 ;; Parameters:    Size  Location     Type
  2833 ;;		None
  2834 ;; Auto vars:     Size  Location     Type
  2835 ;;		None
  2836 ;; Return value:  Size  Location     Type
  2837 ;;                  1    wreg      void 
  2838 ;; Registers used:
  2839 ;;		wreg, status,2, status,0, tblptrl, tblptrh, tblptru, cstack
  2840 ;; Tracked objects:
  2841 ;;		On entry : 0/0
  2842 ;;		On exit  : 0/0
  2843 ;;		Unchanged: 0/0
  2844 ;; Data sizes:     COMRAM   BANK0   BANK1   BANK2   BANK3   BANK4   BANK5   BANK6   BANK7   BANK8   BANK9  BANK10  BANK1
      +1  BANK12
  2845 ;;      Params:         0       0       0       0       0       0       0       0       0       0       0       0       
      +0       0
  2846 ;;      Locals:         0       0       0       0       0       0       0       0       0       0       0       0       
      +0       0
  2847 ;;      Temps:          0       0       0       0       0       0       0       0       0       0       0       0       
      +0       0
  2848 ;;      Totals:         0       0       0       0       0       0       0       0       0       0       0       0       
      +0       0
  2849 ;;Total ram usage:        0 bytes
  2850 ;; Hardware stack levels used:    1
  2851 ;; Hardware stack levels required when called:    4
  2852 ;; This function calls:
  2853 ;;		_SEND_STRING
  2854 ;;		_SEND_UART
  2855 ;; This function is called by:
  2856 ;;		_main
  2857 ;; This function uses a non-reentrant model
  2858 ;;
  2859                           
  2860                           	psect	text22
  2861  001914                     __ptext22:
  2862                           	opt callstack 0
  2863  001914                     _FALTA_DATO:
  2864                           	opt callstack 26
  2865  001914                     
  2866                           ;MENSAJES.c: 31:     SEND_UART(10);
  2867  001914  0E0A               	movlw	10
  2868  001916  ECB1  F00C         	call	_SEND_UART
  2869  00191A                     
  2870                           ;MENSAJES.c: 32:     SEND_STRING("Falta Dato");
  2871  00191A  0E52               	movlw	low STR_5
  2872  00191C  6E07               	movwf	SEND_STRING@PointString^0,c
  2873  00191E  0E0D               	movlw	high STR_5
  2874  001920  6E08               	movwf	(SEND_STRING@PointString+1)^0,c
  2875  001922  ECB2  F009         	call	_SEND_STRING	;wreg free
  2876  001926                     
  2877                           ;MENSAJES.c: 33:     SEND_UART(13);
  2878  001926  0E0D               	movlw	13
  2879  001928  ECB1  F00C         	call	_SEND_UART
  2880  00192C  0012               	return		;funcret
  2881  00192E                     __end_of_FALTA_DATO:
  2882                           	opt callstack 0
  2883                           
  2884 ;; *************** function _ERROR_NO_COMANDO *****************
  2885 ;; Defined at:
  2886 ;;		line 6 in file "MENSAJES.c"
  2887 ;; Parameters:    Size  Location     Type
  2888 ;;		None
  2889 ;; Auto vars:     Size  Location     Type
  2890 ;;		None
  2891 ;; Return value:  Size  Location     Type
  2892 ;;                  1    wreg      void 
  2893 ;; Registers used:
  2894 ;;		wreg, status,2, status,0, tblptrl, tblptrh, tblptru, cstack
  2895 ;; Tracked objects:
  2896 ;;		On entry : 0/0
  2897 ;;		On exit  : 0/0
  2898 ;;		Unchanged: 0/0
  2899 ;; Data sizes:     COMRAM   BANK0   BANK1   BANK2   BANK3   BANK4   BANK5   BANK6   BANK7   BANK8   BANK9  BANK10  BANK1
      +1  BANK12
  2900 ;;      Params:         0       0       0       0       0       0       0       0       0       0       0       0       
      +0       0
  2901 ;;      Locals:         0       0       0       0       0       0       0       0       0       0       0       0       
      +0       0
  2902 ;;      Temps:          0       0       0       0       0       0       0       0       0       0       0       0       
      +0       0
  2903 ;;      Totals:         0       0       0       0       0       0       0       0       0       0       0       0       
      +0       0
  2904 ;;Total ram usage:        0 bytes
  2905 ;; Hardware stack levels used:    1
  2906 ;; Hardware stack levels required when called:    4
  2907 ;; This function calls:
  2908 ;;		_SEND_STRING
  2909 ;;		_SEND_UART
  2910 ;; This function is called by:
  2911 ;;		_main
  2912 ;; This function uses a non-reentrant model
  2913 ;;
  2914                           
  2915                           	psect	text23
  2916  00192E                     __ptext23:
  2917                           	opt callstack 0
  2918  00192E                     _ERROR_NO_COMANDO:
  2919                           	opt callstack 26
  2920  00192E                     
  2921                           ;MENSAJES.c: 7:     SEND_UART(10);
  2922  00192E  0E0A               	movlw	10
  2923  001930  ECB1  F00C         	call	_SEND_UART
  2924  001934                     
  2925                           ;MENSAJES.c: 8:     SEND_STRING("Comando no reconocido");
  2926  001934  0E1E               	movlw	low STR_1
  2927  001936  6E07               	movwf	SEND_STRING@PointString^0,c
  2928  001938  0E0D               	movlw	high STR_1
  2929  00193A  6E08               	movwf	(SEND_STRING@PointString+1)^0,c
  2930  00193C  ECB2  F009         	call	_SEND_STRING	;wreg free
  2931  001940                     
  2932                           ;MENSAJES.c: 9:     SEND_UART(13);
  2933  001940  0E0D               	movlw	13
  2934  001942  ECB1  F00C         	call	_SEND_UART
  2935  001946  0012               	return		;funcret
  2936  001948                     __end_of_ERROR_NO_COMANDO:
  2937                           	opt callstack 0
  2938                           
  2939 ;; *************** function _ERROR_LEDS *****************
  2940 ;; Defined at:
  2941 ;;		line 17 in file "LEDS.c"
  2942 ;; Parameters:    Size  Location     Type
  2943 ;;		None
  2944 ;; Auto vars:     Size  Location     Type
  2945 ;;		None
  2946 ;; Return value:  Size  Location     Type
  2947 ;;                  1    wreg      void 
  2948 ;; Registers used:
  2949 ;;		None
  2950 ;; Tracked objects:
  2951 ;;		On entry : 0/0
  2952 ;;		On exit  : 0/0
  2953 ;;		Unchanged: 0/0
  2954 ;; Data sizes:     COMRAM   BANK0   BANK1   BANK2   BANK3   BANK4   BANK5   BANK6   BANK7   BANK8   BANK9  BANK10  BANK1
      +1  BANK12
  2955 ;;      Params:         0       0       0       0       0       0       0       0       0       0       0       0       
      +0       0
  2956 ;;      Locals:         0       0       0       0       0       0       0       0       0       0       0       0       
      +0       0
  2957 ;;      Temps:          0       0       0       0       0       0       0       0       0       0       0       0       
      +0       0
  2958 ;;      Totals:         0       0       0       0       0       0       0       0       0       0       0       0       
      +0       0
  2959 ;;Total ram usage:        0 bytes
  2960 ;; Hardware stack levels used:    1
  2961 ;; Hardware stack levels required when called:    2
  2962 ;; This function calls:
  2963 ;;		Nothing
  2964 ;; This function is called by:
  2965 ;;		_main
  2966 ;; This function uses a non-reentrant model
  2967 ;;
  2968                           
  2969                           	psect	text24
  2970  0019DE                     __ptext24:
  2971                           	opt callstack 0
  2972  0019DE                     _ERROR_LEDS:
  2973                           	opt callstack 28
  2974  0019DE  8A8A               	bsf	138,5,c	;volatile
  2975  0019E0  9C8A               	bcf	138,6,c	;volatile
  2976  0019E2  9E8A               	bcf	138,7,c	;volatile
  2977  0019E4  0012               	return		;funcret
  2978  0019E6                     __end_of_ERROR_LEDS:
  2979                           	opt callstack 0
  2980                           
  2981 ;; *************** function _ERROR_FUERA_LIMITE *****************
  2982 ;; Defined at:
  2983 ;;		line 12 in file "MENSAJES.c"
  2984 ;; Parameters:    Size  Location     Type
  2985 ;;		None
  2986 ;; Auto vars:     Size  Location     Type
  2987 ;;		None
  2988 ;; Return value:  Size  Location     Type
  2989 ;;                  1    wreg      void 
  2990 ;; Registers used:
  2991 ;;		wreg, status,2, status,0, tblptrl, tblptrh, tblptru, cstack
  2992 ;; Tracked objects:
  2993 ;;		On entry : 0/0
  2994 ;;		On exit  : 0/0
  2995 ;;		Unchanged: 0/0
  2996 ;; Data sizes:     COMRAM   BANK0   BANK1   BANK2   BANK3   BANK4   BANK5   BANK6   BANK7   BANK8   BANK9  BANK10  BANK1
      +1  BANK12
  2997 ;;      Params:         0       0       0       0       0       0       0       0       0       0       0       0       
      +0       0
  2998 ;;      Locals:         0       0       0       0       0       0       0       0       0       0       0       0       
      +0       0
  2999 ;;      Temps:          0       0       0       0       0       0       0       0       0       0       0       0       
      +0       0
  3000 ;;      Totals:         0       0       0       0       0       0       0       0       0       0       0       0       
      +0       0
  3001 ;;Total ram usage:        0 bytes
  3002 ;; Hardware stack levels used:    1
  3003 ;; Hardware stack levels required when called:    4
  3004 ;; This function calls:
  3005 ;;		_SEND_STRING
  3006 ;;		_SEND_UART
  3007 ;; This function is called by:
  3008 ;;		_main
  3009 ;; This function uses a non-reentrant model
  3010 ;;
  3011                           
  3012                           	psect	text25
  3013  001948                     __ptext25:
  3014                           	opt callstack 0
  3015  001948                     _ERROR_FUERA_LIMITE:
  3016                           	opt callstack 26
  3017  001948                     
  3018                           ;MENSAJES.c: 13:     SEND_UART(10);
  3019  001948  0E0A               	movlw	10
  3020  00194A  ECB1  F00C         	call	_SEND_UART
  3021  00194E                     
  3022                           ;MENSAJES.c: 14:     SEND_STRING("coordenadas fuera del limite");
  3023  00194E  0E01               	movlw	low STR_2
  3024  001950  6E07               	movwf	SEND_STRING@PointString^0,c
  3025  001952  0E0D               	movlw	high STR_2
  3026  001954  6E08               	movwf	(SEND_STRING@PointString+1)^0,c
  3027  001956  ECB2  F009         	call	_SEND_STRING	;wreg free
  3028  00195A                     
  3029                           ;MENSAJES.c: 15:     SEND_UART(13);
  3030  00195A  0E0D               	movlw	13
  3031  00195C  ECB1  F00C         	call	_SEND_UART
  3032  001960  0012               	return		;funcret
  3033  001962                     __end_of_ERROR_FUERA_LIMITE:
  3034                           	opt callstack 0
  3035                           
  3036 ;; *************** function _SEND_STRING *****************
  3037 ;; Defined at:
  3038 ;;		line 5 in file "SERIAL.c"
  3039 ;; Parameters:    Size  Location     Type
  3040 ;;  PointString     2    6[COMRAM] PTR unsigned char 
  3041 ;;		 -> STR_5(11), STR_4(11), STR_3(19), STR_2(29), 
  3042 ;;		 -> STR_1(22), 
  3043 ;; Auto vars:     Size  Location     Type
  3044 ;;  i               1   10[COMRAM] unsigned char 
  3045 ;; Return value:  Size  Location     Type
  3046 ;;                  1    wreg      void 
  3047 ;; Registers used:
  3048 ;;		wreg, status,2, status,0, tblptrl, tblptrh, tblptru, cstack
  3049 ;; Tracked objects:
  3050 ;;		On entry : 0/0
  3051 ;;		On exit  : 0/0
  3052 ;;		Unchanged: 0/0
  3053 ;; Data sizes:     COMRAM   BANK0   BANK1   BANK2   BANK3   BANK4   BANK5   BANK6   BANK7   BANK8   BANK9  BANK10  BANK1
      +1  BANK12
  3054 ;;      Params:         2       0       0       0       0       0       0       0       0       0       0       0       
      +0       0
  3055 ;;      Locals:         1       0       0       0       0       0       0       0       0       0       0       0       
      +0       0
  3056 ;;      Temps:          2       0       0       0       0       0       0       0       0       0       0       0       
      +0       0
  3057 ;;      Totals:         5       0       0       0       0       0       0       0       0       0       0       0       
      +0       0
  3058 ;;Total ram usage:        5 bytes
  3059 ;; Hardware stack levels used:    1
  3060 ;; Hardware stack levels required when called:    3
  3061 ;; This function calls:
  3062 ;;		_SEND_UART
  3063 ;; This function is called by:
  3064 ;;		_ERROR_NO_COMANDO
  3065 ;;		_ERROR_FUERA_LIMITE
  3066 ;;		_TERMINADO
  3067 ;;		_PROCESO
  3068 ;;		_FALTA_DATO
  3069 ;; This function uses a non-reentrant model
  3070 ;;
  3071                           
  3072                           	psect	text26
  3073  001364                     __ptext26:
  3074                           	opt callstack 0
  3075  001364                     _SEND_STRING:
  3076                           	opt callstack 26
  3077  001364                     
  3078                           ;SERIAL.c: 6:     for (unsigned char i = 0; i < 255; i++) {
  3079  001364  0E00               	movlw	0
  3080  001366  6E0B               	movwf	SEND_STRING@i^0,c
  3081  001368                     l1666:
  3082                           
  3083                           ;SERIAL.c: 7:         if (PointString[i] < 32 || PointString[i] > 122 ) {
  3084  001368  500B               	movf	SEND_STRING@i^0,w,c
  3085  00136A  2407               	addwf	SEND_STRING@PointString^0,w,c
  3086  00136C  6E09               	movwf	??_SEND_STRING^0,c
  3087  00136E  0E00               	movlw	0
  3088  001370  2008               	addwfc	(SEND_STRING@PointString+1)^0,w,c
  3089  001372  6E0A               	movwf	(??_SEND_STRING+1)^0,c
  3090  001374  C009  FFF6         	movff	??_SEND_STRING,tblptrl
  3091  001378  C00A  FFF7         	movff	??_SEND_STRING+1,tblptrh
  3092  00137C                     	if	0	;tblptru may be non-zero
  3093  00137C                     	endif
  3094  00137C                     	if	0	;tblptru may be non-zero
  3095  00137C                     	endif
  3096  00137C  0E1F               	movlw	31
  3097  00137E  0008               	tblrd		*
  3098  001380  64F5               	cpfsgt	tablat,c
  3099  001382  EFC5  F009         	goto	u731
  3100  001386  EFC7  F009         	goto	u730
  3101  00138A                     u731:
  3102  00138A  EFF3  F009         	goto	l98
  3103  00138E                     u730:
  3104  00138E  500B               	movf	SEND_STRING@i^0,w,c
  3105  001390  2407               	addwf	SEND_STRING@PointString^0,w,c
  3106  001392  6E09               	movwf	??_SEND_STRING^0,c
  3107  001394  0E00               	movlw	0
  3108  001396  2008               	addwfc	(SEND_STRING@PointString+1)^0,w,c
  3109  001398  6E0A               	movwf	(??_SEND_STRING+1)^0,c
  3110  00139A  C009  FFF6         	movff	??_SEND_STRING,tblptrl
  3111  00139E  C00A  FFF7         	movff	??_SEND_STRING+1,tblptrh
  3112  0013A2                     	if	0	;tblptru may be non-zero
  3113  0013A2                     	endif
  3114  0013A2                     	if	0	;tblptru may be non-zero
  3115  0013A2                     	endif
  3116  0013A2  0E7A               	movlw	122
  3117  0013A4  0008               	tblrd		*
  3118  0013A6  64F5               	cpfsgt	tablat,c
  3119  0013A8  EFD8  F009         	goto	u741
  3120  0013AC  EFDA  F009         	goto	u740
  3121  0013B0                     u741:
  3122  0013B0  EFDC  F009         	goto	l1670
  3123  0013B4                     u740:
  3124  0013B4  EFF3  F009         	goto	l98
  3125  0013B8                     l1670:
  3126                           
  3127                           ;SERIAL.c: 10:         SEND_UART(PointString[i]);
  3128  0013B8  500B               	movf	SEND_STRING@i^0,w,c
  3129  0013BA  2407               	addwf	SEND_STRING@PointString^0,w,c
  3130  0013BC  6E09               	movwf	??_SEND_STRING^0,c
  3131  0013BE  0E00               	movlw	0
  3132  0013C0  2008               	addwfc	(SEND_STRING@PointString+1)^0,w,c
  3133  0013C2  6E0A               	movwf	(??_SEND_STRING+1)^0,c
  3134  0013C4  C009  FFF6         	movff	??_SEND_STRING,tblptrl
  3135  0013C8  C00A  FFF7         	movff	??_SEND_STRING+1,tblptrh
  3136  0013CC                     	if	0	;tblptru may be non-zero
  3137  0013CC                     	endif
  3138  0013CC                     	if	0	;tblptru may be non-zero
  3139  0013CC                     	endif
  3140  0013CC  0008               	tblrd		*
  3141  0013CE  50F5               	movf	tablat,w,c
  3142  0013D0  ECB1  F00C         	call	_SEND_UART
  3143  0013D4                     
  3144                           ;SERIAL.c: 11:     }
  3145  0013D4  2A0B               	incf	SEND_STRING@i^0,f,c
  3146  0013D6  280B               	incf	SEND_STRING@i^0,w,c
  3147  0013D8  A4D8               	btfss	status,2,c
  3148  0013DA  EFF1  F009         	goto	u751
  3149  0013DE  EFF3  F009         	goto	u750
  3150  0013E2                     u751:
  3151  0013E2  EFB4  F009         	goto	l1666
  3152  0013E6                     u750:
  3153  0013E6                     l98:
  3154  0013E6  0012               	return		;funcret
  3155  0013E8                     __end_of_SEND_STRING:
  3156                           	opt callstack 0
  3157                           
  3158 ;; *************** function _SEND_UART *****************
  3159 ;; Defined at:
  3160 ;;		line 17 in file "UART.c"
  3161 ;; Parameters:    Size  Location     Type
  3162 ;;  TX_Data         1    wreg     unsigned char 
  3163 ;; Auto vars:     Size  Location     Type
  3164 ;;  TX_Data         1    5[COMRAM] unsigned char 
  3165 ;; Return value:  Size  Location     Type
  3166 ;;                  1    wreg      void 
  3167 ;; Registers used:
  3168 ;;		wreg
  3169 ;; Tracked objects:
  3170 ;;		On entry : 0/0
  3171 ;;		On exit  : 0/0
  3172 ;;		Unchanged: 0/0
  3173 ;; Data sizes:     COMRAM   BANK0   BANK1   BANK2   BANK3   BANK4   BANK5   BANK6   BANK7   BANK8   BANK9  BANK10  BANK1
      +1  BANK12
  3174 ;;      Params:         0       0       0       0       0       0       0       0       0       0       0       0       
      +0       0
  3175 ;;      Locals:         1       0       0       0       0       0       0       0       0       0       0       0       
      +0       0
  3176 ;;      Temps:          0       0       0       0       0       0       0       0       0       0       0       0       
      +0       0
  3177 ;;      Totals:         1       0       0       0       0       0       0       0       0       0       0       0       
      +0       0
  3178 ;;Total ram usage:        1 bytes
  3179 ;; Hardware stack levels used:    1
  3180 ;; Hardware stack levels required when called:    2
  3181 ;; This function calls:
  3182 ;;		Nothing
  3183 ;; This function is called by:
  3184 ;;		_SEND_STRING
  3185 ;;		_ERROR_NO_COMANDO
  3186 ;;		_ERROR_FUERA_LIMITE
  3187 ;;		_TERMINADO
  3188 ;;		_PROCESO
  3189 ;;		_FALTA_DATO
  3190 ;; This function uses a non-reentrant model
  3191 ;;
  3192                           
  3193                           	psect	text27
  3194  001962                     __ptext27:
  3195                           	opt callstack 0
  3196  001962                     _SEND_UART:
  3197                           	opt callstack 27
  3198                           
  3199                           ;incstack = 0
  3200                           ;SEND_UART@TX_Data stored from wreg
  3201  001962  6E06               	movwf	SEND_UART@TX_Data^0,c
  3202  001964                     l177:
  3203                           
  3204                           ;UART.c: 18:     while (TXSTAbits.TRMT == 0) {
  3205  001964  A2AC               	btfss	172,1,c	;volatile
  3206  001966  EFB7  F00C         	goto	u11
  3207  00196A  EFB9  F00C         	goto	u10
  3208  00196E                     u11:
  3209  00196E  EFB2  F00C         	goto	l177
  3210  001972                     u10:
  3211  001972                     
  3212                           ;UART.c: 20:     TXREG = TX_Data;
  3213  001972  C006  FFAD         	movff	SEND_UART@TX_Data,4013	;volatile
  3214  001976  0012               	return		;funcret
  3215  001978                     __end_of_SEND_UART:
  3216                           	opt callstack 0
  3217                           
  3218 ;; *************** function _DOWN_PLATFORM *****************
  3219 ;; Defined at:
  3220 ;;		line 20 in file "BOTONES.c"
  3221 ;; Parameters:    Size  Location     Type
  3222 ;;		None
  3223 ;; Auto vars:     Size  Location     Type
  3224 ;;		None
  3225 ;; Return value:  Size  Location     Type
  3226 ;;                  1    wreg      void 
  3227 ;; Registers used:
  3228 ;;		cstack
  3229 ;; Tracked objects:
  3230 ;;		On entry : 0/0
  3231 ;;		On exit  : 0/0
  3232 ;;		Unchanged: 0/0
  3233 ;; Data sizes:     COMRAM   BANK0   BANK1   BANK2   BANK3   BANK4   BANK5   BANK6   BANK7   BANK8   BANK9  BANK10  BANK1
      +1  BANK12
  3234 ;;      Params:         0       0       0       0       0       0       0       0       0       0       0       0       
      +0       0
  3235 ;;      Locals:         0       0       0       0       0       0       0       0       0       0       0       0       
      +0       0
  3236 ;;      Temps:          0       0       0       0       0       0       0       0       0       0       0       0       
      +0       0
  3237 ;;      Totals:         0       0       0       0       0       0       0       0       0       0       0       0       
      +0       0
  3238 ;;Total ram usage:        0 bytes
  3239 ;; Hardware stack levels used:    1
  3240 ;; Hardware stack levels required when called:    3
  3241 ;; This function calls:
  3242 ;;		_MOV_L_DC
  3243 ;;		_MOV_STOP_DC
  3244 ;; This function is called by:
  3245 ;;		_main
  3246 ;; This function uses a non-reentrant model
  3247 ;;
  3248                           
  3249                           	psect	text28
  3250  0018C4                     __ptext28:
  3251                           	opt callstack 0
  3252  0018C4                     _DOWN_PLATFORM:
  3253                           	opt callstack 27
  3254  0018C4                     
  3255                           ;BOTONES.c: 21:     while (PORTCbits.RC5 == 1) {
  3256  0018C4  EF66  F00C         	goto	l1156
  3257  0018C8                     l1154:
  3258                           
  3259                           ;BOTONES.c: 22:         MOV_L_DC();
  3260  0018C8  ECF7  F00C         	call	_MOV_L_DC	;wreg free
  3261  0018CC                     l1156:
  3262                           
  3263                           ;BOTONES.c: 21:     while (PORTCbits.RC5 == 1) {
  3264  0018CC  BA82               	btfsc	130,5,c	;volatile
  3265  0018CE  EF6B  F00C         	goto	u81
  3266  0018D2  EF6D  F00C         	goto	u80
  3267  0018D6                     u81:
  3268  0018D6  EF64  F00C         	goto	l1154
  3269  0018DA                     u80:
  3270  0018DA                     
  3271                           ;BOTONES.c: 24:     MOV_STOP_DC();
  3272  0018DA  ECF3  F00C         	call	_MOV_STOP_DC	;wreg free
  3273  0018DE  0012               	return		;funcret
  3274  0018E0                     __end_of_DOWN_PLATFORM:
  3275                           	opt callstack 0
  3276                           
  3277 ;; *************** function _MOV_STOP_DC *****************
  3278 ;; Defined at:
  3279 ;;		line 23 in file "MOTORES_DC.c"
  3280 ;; Parameters:    Size  Location     Type
  3281 ;;		None
  3282 ;; Auto vars:     Size  Location     Type
  3283 ;;		None
  3284 ;; Return value:  Size  Location     Type
  3285 ;;                  1    wreg      void 
  3286 ;; Registers used:
  3287 ;;		None
  3288 ;; Tracked objects:
  3289 ;;		On entry : 0/0
  3290 ;;		On exit  : 0/0
  3291 ;;		Unchanged: 0/0
  3292 ;; Data sizes:     COMRAM   BANK0   BANK1   BANK2   BANK3   BANK4   BANK5   BANK6   BANK7   BANK8   BANK9  BANK10  BANK1
      +1  BANK12
  3293 ;;      Params:         0       0       0       0       0       0       0       0       0       0       0       0       
      +0       0
  3294 ;;      Locals:         0       0       0       0       0       0       0       0       0       0       0       0       
      +0       0
  3295 ;;      Temps:          0       0       0       0       0       0       0       0       0       0       0       0       
      +0       0
  3296 ;;      Totals:         0       0       0       0       0       0       0       0       0       0       0       0       
      +0       0
  3297 ;;Total ram usage:        0 bytes
  3298 ;; Hardware stack levels used:    1
  3299 ;; Hardware stack levels required when called:    2
  3300 ;; This function calls:
  3301 ;;		Nothing
  3302 ;; This function is called by:
  3303 ;;		_UP_PLATFORM
  3304 ;;		_DOWN_PLATFORM
  3305 ;; This function uses a non-reentrant model
  3306 ;;
  3307                           
  3308                           	psect	text29
  3309  0019E6                     __ptext29:
  3310                           	opt callstack 0
  3311  0019E6                     _MOV_STOP_DC:
  3312                           	opt callstack 27
  3313  0019E6  988C               	bcf	140,4,c	;volatile
  3314  0019E8  9C8C               	bcf	140,6,c	;volatile
  3315  0019EA  9A8C               	bcf	140,5,c	;volatile
  3316  0019EC  0012               	return		;funcret
  3317  0019EE                     __end_of_MOV_STOP_DC:
  3318                           	opt callstack 0
  3319                           
  3320 ;; *************** function _MOV_L_DC *****************
  3321 ;; Defined at:
  3322 ;;		line 17 in file "MOTORES_DC.c"
  3323 ;; Parameters:    Size  Location     Type
  3324 ;;		None
  3325 ;; Auto vars:     Size  Location     Type
  3326 ;;		None
  3327 ;; Return value:  Size  Location     Type
  3328 ;;                  1    wreg      void 
  3329 ;; Registers used:
  3330 ;;		None
  3331 ;; Tracked objects:
  3332 ;;		On entry : 0/0
  3333 ;;		On exit  : 0/0
  3334 ;;		Unchanged: 0/0
  3335 ;; Data sizes:     COMRAM   BANK0   BANK1   BANK2   BANK3   BANK4   BANK5   BANK6   BANK7   BANK8   BANK9  BANK10  BANK1
      +1  BANK12
  3336 ;;      Params:         0       0       0       0       0       0       0       0       0       0       0       0       
      +0       0
  3337 ;;      Locals:         0       0       0       0       0       0       0       0       0       0       0       0       
      +0       0
  3338 ;;      Temps:          0       0       0       0       0       0       0       0       0       0       0       0       
      +0       0
  3339 ;;      Totals:         0       0       0       0       0       0       0       0       0       0       0       0       
      +0       0
  3340 ;;Total ram usage:        0 bytes
  3341 ;; Hardware stack levels used:    1
  3342 ;; Hardware stack levels required when called:    2
  3343 ;; This function calls:
  3344 ;;		Nothing
  3345 ;; This function is called by:
  3346 ;;		_DOWN_PLATFORM
  3347 ;; This function uses a non-reentrant model
  3348 ;;
  3349                           
  3350                           	psect	text30
  3351  0019EE                     __ptext30:
  3352                           	opt callstack 0
  3353  0019EE                     _MOV_L_DC:
  3354                           	opt callstack 27
  3355  0019EE  888C               	bsf	140,4,c	;volatile
  3356  0019F0  8C8C               	bsf	140,6,c	;volatile
  3357  0019F2  9A8C               	bcf	140,5,c	;volatile
  3358  0019F4  0012               	return		;funcret
  3359  0019F6                     __end_of_MOV_L_DC:
  3360                           	opt callstack 0
  3361                           
  3362 ;; *************** function _INT_isr *****************
  3363 ;; Defined at:
  3364 ;;		line 219 in file "SPARC_4585.c"
  3365 ;; Parameters:    Size  Location     Type
  3366 ;;		None
  3367 ;; Auto vars:     Size  Location     Type
  3368 ;;		None
  3369 ;; Return value:  Size  Location     Type
  3370 ;;                  1    wreg      void 
  3371 ;; Registers used:
  3372 ;;		wreg, status,2, status,0, cstack
  3373 ;; Tracked objects:
  3374 ;;		On entry : 0/0
  3375 ;;		On exit  : 0/0
  3376 ;;		Unchanged: 0/0
  3377 ;; Data sizes:     COMRAM   BANK0   BANK1   BANK2   BANK3   BANK4   BANK5   BANK6   BANK7   BANK8   BANK9  BANK10  BANK1
      +1  BANK12
  3378 ;;      Params:         0       0       0       0       0       0       0       0       0       0       0       0       
      +0       0
  3379 ;;      Locals:         0       0       0       0       0       0       0       0       0       0       0       0       
      +0       0
  3380 ;;      Temps:          0       0       0       0       0       0       0       0       0       0       0       0       
      +0       0
  3381 ;;      Totals:         0       0       0       0       0       0       0       0       0       0       0       0       
      +0       0
  3382 ;;Total ram usage:        0 bytes
  3383 ;; Hardware stack levels used:    1
  3384 ;; Hardware stack levels required when called:    1
  3385 ;; This function calls:
  3386 ;;		i2_MOV_L_PASOS_X
  3387 ;;		i2_MOV_L_PASOS_Y
  3388 ;;		i2_MOV_R_PASOS_X
  3389 ;;		i2_MOV_R_PASOS_Y
  3390 ;; This function is called by:
  3391 ;;		Interrupt level 2
  3392 ;; This function uses a non-reentrant model
  3393 ;;
  3394                           
  3395                           	psect	intcode
  3396  000008                     __pintcode:
  3397                           	opt callstack 0
  3398  000008                     _INT_isr:
  3399                           	opt callstack 26
  3400                           
  3401                           ;incstack = 0
  3402  000008  8237               	bsf	int$flags,1,c	;set compiler interrupt flag (level 2)
  3403  00000A  ED65  F009         	call	int_func,f	;refresh shadow registers
  3404                           
  3405                           	psect	intcode_body
  3406  0012CA                     __pintcode_body:
  3407                           	opt callstack 26
  3408  0012CA                     int_func:
  3409                           	opt callstack 26
  3410  0012CA  0006               	pop		; remove dummy address from shadow register refresh
  3411  0012CC                     
  3412                           ;SPARC_4585.c: 220:     if (INTCONbits.INT0IF == 1) {
  3413  0012CC  A2F2               	btfss	242,1,c	;volatile
  3414  0012CE  EF6B  F009         	goto	i2u137_41
  3415  0012D2  EF6D  F009         	goto	i2u137_40
  3416  0012D6                     i2u137_41:
  3417  0012D6  EF84  F009         	goto	i2l2138
  3418  0012DA                     i2u137_40:
  3419  0012DA                     
  3420                           ;SPARC_4585.c: 221:         MOV_L_PASOS_X(PosicionX, 0);
  3421  0012DA  C027  F001         	movff	_PosicionX,i2MOV_L_PASOS_X@posicion
  3422  0012DE  C028  F002         	movff	_PosicionX+1,i2MOV_L_PASOS_X@posicion+1
  3423  0012E2  0E00               	movlw	0
  3424  0012E4  6E04               	movwf	(i2MOV_L_PASOS_X@coordenada+1)^0,c
  3425  0012E6  0E00               	movlw	0
  3426  0012E8  6E03               	movwf	i2MOV_L_PASOS_X@coordenada^0,c
  3427  0012EA  EC32  F00A         	call	i2_MOV_L_PASOS_X	;wreg free
  3428                           
  3429                           ;SPARC_4585.c: 222:         MOV_L_PASOS_Y(PosicionY, 0);
  3430  0012EE  C025  F001         	movff	_PosicionY,i2MOV_L_PASOS_Y@posicion
  3431  0012F2  C026  F002         	movff	_PosicionY+1,i2MOV_L_PASOS_Y@posicion+1
  3432  0012F6  0E00               	movlw	0
  3433  0012F8  6E04               	movwf	(i2MOV_L_PASOS_Y@coordenada+1)^0,c
  3434  0012FA  0E00               	movlw	0
  3435  0012FC  6E03               	movwf	i2MOV_L_PASOS_Y@coordenada^0,c
  3436  0012FE  ECF4  F009         	call	i2_MOV_L_PASOS_Y	;wreg free
  3437  001302                     
  3438                           ;SPARC_4585.c: 223:         INTCONbits.INT0IF = 0;
  3439  001302  92F2               	bcf	242,1,c	;volatile
  3440  001304                     
  3441                           ;SPARC_4585.c: 224:         INTCON3bits.INT1IF = 0;
  3442  001304  90F0               	bcf	240,0,c	;volatile
  3443  001306                     
  3444                           ;SPARC_4585.c: 225:         INTCON3bits.INT2IF = 0;
  3445  001306  92F0               	bcf	240,1,c	;volatile
  3446  001308                     i2l2138:
  3447                           
  3448                           ;SPARC_4585.c: 227:     if (INTCON3bits.INT1IF == 1) {
  3449  001308  A0F0               	btfss	240,0,c	;volatile
  3450  00130A  EF89  F009         	goto	i2u138_41
  3451  00130E  EF8B  F009         	goto	i2u138_40
  3452  001312                     i2u138_41:
  3453  001312  EF9A  F009         	goto	i2l2150
  3454  001316                     i2u138_40:
  3455  001316                     
  3456                           ;SPARC_4585.c: 228:         MOV_R_PASOS_X(0, 20);
  3457  001316  0E00               	movlw	0
  3458  001318  6E02               	movwf	(i2MOV_R_PASOS_X@posicion+1)^0,c
  3459  00131A  0E00               	movlw	0
  3460  00131C  6E01               	movwf	i2MOV_R_PASOS_X@posicion^0,c
  3461  00131E  0E00               	movlw	0
  3462  001320  6E04               	movwf	(i2MOV_R_PASOS_X@coordenada+1)^0,c
  3463  001322  0E14               	movlw	20
  3464  001324  6E03               	movwf	i2MOV_R_PASOS_X@coordenada^0,c
  3465  001326  ECAD  F00A         	call	i2_MOV_R_PASOS_X	;wreg free
  3466  00132A                     
  3467                           ;SPARC_4585.c: 229:         BuscandoHomeX = 1;
  3468  00132A  0E01               	movlw	1
  3469  00132C  6E35               	movwf	_BuscandoHomeX^0,c
  3470  00132E                     
  3471                           ;SPARC_4585.c: 230:         INTCONbits.INT0IF = 0;
  3472  00132E  92F2               	bcf	242,1,c	;volatile
  3473  001330                     
  3474                           ;SPARC_4585.c: 231:         INTCON3bits.INT1IF = 0;
  3475  001330  90F0               	bcf	240,0,c	;volatile
  3476  001332                     
  3477                           ;SPARC_4585.c: 232:         INTCON3bits.INT2IF = 0;
  3478  001332  92F0               	bcf	240,1,c	;volatile
  3479  001334                     i2l2150:
  3480                           
  3481                           ;SPARC_4585.c: 234:     if (INTCON3bits.INT2IF == 1) {
  3482  001334  A2F0               	btfss	240,1,c	;volatile
  3483  001336  EF9F  F009         	goto	i2u139_41
  3484  00133A  EFA1  F009         	goto	i2u139_40
  3485  00133E                     i2u139_41:
  3486  00133E  EFB0  F009         	goto	i2l357
  3487  001342                     i2u139_40:
  3488  001342                     
  3489                           ;SPARC_4585.c: 235:         MOV_R_PASOS_Y(0, 10);
  3490  001342  0E00               	movlw	0
  3491  001344  6E02               	movwf	(i2MOV_R_PASOS_Y@posicion+1)^0,c
  3492  001346  0E00               	movlw	0
  3493  001348  6E01               	movwf	i2MOV_R_PASOS_Y@posicion^0,c
  3494  00134A  0E00               	movlw	0
  3495  00134C  6E04               	movwf	(i2MOV_R_PASOS_Y@coordenada+1)^0,c
  3496  00134E  0E0A               	movlw	10
  3497  001350  6E03               	movwf	i2MOV_R_PASOS_Y@coordenada^0,c
  3498  001352  EC70  F00A         	call	i2_MOV_R_PASOS_Y	;wreg free
  3499  001356                     
  3500                           ;SPARC_4585.c: 236:         BuscandoHomeY = 1;
  3501  001356  0E01               	movlw	1
  3502  001358  6E34               	movwf	_BuscandoHomeY^0,c
  3503  00135A                     
  3504                           ;SPARC_4585.c: 237:         INTCONbits.INT0IF = 0;
  3505  00135A  92F2               	bcf	242,1,c	;volatile
  3506  00135C                     
  3507                           ;SPARC_4585.c: 238:         INTCON3bits.INT1IF = 0;
  3508  00135C  90F0               	bcf	240,0,c	;volatile
  3509  00135E                     
  3510                           ;SPARC_4585.c: 239:         INTCON3bits.INT2IF = 0;
  3511  00135E  92F0               	bcf	240,1,c	;volatile
  3512  001360                     i2l357:
  3513  001360  9237               	bcf	int$flags,1,c	;clear compiler interrupt flag (level 2)
  3514  001362  0011               	retfie		f
  3515  001364                     __end_of_INT_isr:
  3516                           	opt callstack 0
  3517                           
  3518 ;; *************** function i2_MOV_R_PASOS_Y *****************
  3519 ;; Defined at:
  3520 ;;		line 51 in file "STEP_MOTOR.c"
  3521 ;; Parameters:    Size  Location     Type
  3522 ;;  posicion        2    0[COMRAM] unsigned short 
  3523 ;;  coordenada      2    2[COMRAM] unsigned short 
  3524 ;; Auto vars:     Size  Location     Type
  3525 ;;  MOV_R_PASOS_    1    4[COMRAM] unsigned char 
  3526 ;; Return value:  Size  Location     Type
  3527 ;;                  2    0[COMRAM] unsigned short 
  3528 ;; Registers used:
  3529 ;;		wreg, status,2, status,0
  3530 ;; Tracked objects:
  3531 ;;		On entry : 0/0
  3532 ;;		On exit  : 0/0
  3533 ;;		Unchanged: 0/0
  3534 ;; Data sizes:     COMRAM   BANK0   BANK1   BANK2   BANK3   BANK4   BANK5   BANK6   BANK7   BANK8   BANK9  BANK10  BANK1
      +1  BANK12
  3535 ;;      Params:         4       0       0       0       0       0       0       0       0       0       0       0       
      +0       0
  3536 ;;      Locals:         1       0       0       0       0       0       0       0       0       0       0       0       
      +0       0
  3537 ;;      Temps:          0       0       0       0       0       0       0       0       0       0       0       0       
      +0       0
  3538 ;;      Totals:         5       0       0       0       0       0       0       0       0       0       0       0       
      +0       0
  3539 ;;Total ram usage:        5 bytes
  3540 ;; Hardware stack levels used:    1
  3541 ;; This function calls:
  3542 ;;		Nothing
  3543 ;; This function is called by:
  3544 ;;		_INT_isr
  3545 ;; This function uses a non-reentrant model
  3546 ;;
  3547                           
  3548                           	psect	text32
  3549  0014E0                     __ptext32:
  3550                           	opt callstack 0
  3551  0014E0                     i2_MOV_R_PASOS_Y:
  3552                           	opt callstack 26
  3553  0014E0                     
  3554                           ;STEP_MOTOR.c: 52:     if (posicion < coordenada) {
  3555  0014E0  5003               	movf	i2MOV_R_PASOS_Y@coordenada^0,w,c
  3556  0014E2  5C01               	subwf	i2MOV_R_PASOS_Y@posicion^0,w,c
  3557  0014E4  5004               	movf	(i2MOV_R_PASOS_Y@coordenada+1)^0,w,c
  3558  0014E6  5802               	subwfb	(i2MOV_R_PASOS_Y@posicion+1)^0,w,c
  3559  0014E8  B0D8               	btfsc	status,0,c
  3560  0014EA  EF79  F00A         	goto	i2u97_41
  3561  0014EE  EF7B  F00A         	goto	i2u97_40
  3562  0014F2                     i2u97_41:
  3563  0014F2  EFAC  F00A         	goto	i2l144
  3564  0014F6                     i2u97_40:
  3565  0014F6                     
  3566                           ;STEP_MOTOR.c: 53:         PORTDbits.RD2 = 0;
  3567  0014F6  9483               	bcf	131,2,c	;volatile
  3568                           
  3569                           ;STEP_MOTOR.c: 54:         PORTDbits.RD3 = 1;
  3570  0014F8  8683               	bsf	131,3,c	;volatile
  3571                           
  3572                           ;STEP_MOTOR.c: 55:         for (; posicion < coordenada; posicion++) {
  3573  0014FA  EFA0  F00A         	goto	i2l1858
  3574  0014FE                     i2l1844:
  3575                           
  3576                           ;STEP_MOTOR.c: 56:             for (unsigned char i = 0; i < 5; i++) {
  3577  0014FE  0E00               	movlw	0
  3578  001500  6E05               	movwf	i2MOV_R_PASOS_Y@i^0,c
  3579  001502  0E04               	movlw	4
  3580  001504  6405               	cpfsgt	i2MOV_R_PASOS_Y@i^0,c
  3581  001506  EF87  F00A         	goto	i2u98_41
  3582  00150A  EF89  F00A         	goto	i2u98_40
  3583  00150E                     i2u98_41:
  3584  00150E  EF8B  F00A         	goto	i2l141
  3585  001512                     i2u98_40:
  3586  001512  EF9E  F00A         	goto	i2l1856
  3587  001516                     i2l141:
  3588                           
  3589                           ;STEP_MOTOR.c: 57:                 PORTCbits.RC2 = 1;
  3590  001516  8482               	bsf	130,2,c	;volatile
  3591  001518                     
  3592                           ;STEP_MOTOR.c: 58:                 _delay((unsigned long)((1)*(4000000/4000.0)));
  3593  001518  0EC8               	movlw	200
  3594  00151A                     i2u150_47:
  3595  00151A  D000               	nop2	
  3596  00151C  2EE8               	decfsz	wreg,f,c
  3597  00151E  D7FD               	bra	i2u150_47
  3598  001520                     
  3599                           ;STEP_MOTOR.c: 59:                 PORTCbits.RC2 = 0;
  3600  001520  9482               	bcf	130,2,c	;volatile
  3601                           
  3602                           ;STEP_MOTOR.c: 60:                 _delay((unsigned long)((1)*(4000000/4000.0)));
  3603  001522  0EC8               	movlw	200
  3604  001524                     i2u151_47:
  3605  001524  D000               	nop2	
  3606  001526  2EE8               	decfsz	wreg,f,c
  3607  001528  D7FD               	bra	i2u151_47
  3608  00152A                     
  3609                           ;STEP_MOTOR.c: 61:             }
  3610  00152A  2A05               	incf	i2MOV_R_PASOS_Y@i^0,f,c
  3611  00152C  0E04               	movlw	4
  3612  00152E  6405               	cpfsgt	i2MOV_R_PASOS_Y@i^0,c
  3613  001530  EF9C  F00A         	goto	i2u99_41
  3614  001534  EF9E  F00A         	goto	i2u99_40
  3615  001538                     i2u99_41:
  3616  001538  EF8B  F00A         	goto	i2l141
  3617  00153C                     i2u99_40:
  3618  00153C                     i2l1856:
  3619                           
  3620                           ;STEP_MOTOR.c: 62:         }
  3621  00153C  4A01               	infsnz	i2MOV_R_PASOS_Y@posicion^0,f,c
  3622  00153E  2A02               	incf	(i2MOV_R_PASOS_Y@posicion+1)^0,f,c
  3623  001540                     i2l1858:
  3624  001540  5003               	movf	i2MOV_R_PASOS_Y@coordenada^0,w,c
  3625  001542  5C01               	subwf	i2MOV_R_PASOS_Y@posicion^0,w,c
  3626  001544  5004               	movf	(i2MOV_R_PASOS_Y@coordenada+1)^0,w,c
  3627  001546  5802               	subwfb	(i2MOV_R_PASOS_Y@posicion+1)^0,w,c
  3628  001548  A0D8               	btfss	status,0,c
  3629  00154A  EFA9  F00A         	goto	i2u100_41
  3630  00154E  EFAB  F00A         	goto	i2u100_40
  3631  001552                     i2u100_41:
  3632  001552  EF7F  F00A         	goto	i2l1844
  3633  001556                     i2u100_40:
  3634  001556                     
  3635                           ;STEP_MOTOR.c: 63:         PORTDbits.RD2 = 1;
  3636  001556  8483               	bsf	131,2,c	;volatile
  3637  001558                     i2l144:
  3638  001558  0012               	return		;funcret
  3639  00155A                     __end_ofi2_MOV_R_PASOS_Y:
  3640                           	opt callstack 0
  3641                           
  3642 ;; *************** function i2_MOV_R_PASOS_X *****************
  3643 ;; Defined at:
  3644 ;;		line 15 in file "STEP_MOTOR.c"
  3645 ;; Parameters:    Size  Location     Type
  3646 ;;  posicion        2    0[COMRAM] unsigned short 
  3647 ;;  coordenada      2    2[COMRAM] unsigned short 
  3648 ;; Auto vars:     Size  Location     Type
  3649 ;;  MOV_R_PASOS_    1    4[COMRAM] unsigned char 
  3650 ;; Return value:  Size  Location     Type
  3651 ;;                  2    0[COMRAM] unsigned short 
  3652 ;; Registers used:
  3653 ;;		wreg, status,2, status,0
  3654 ;; Tracked objects:
  3655 ;;		On entry : 0/0
  3656 ;;		On exit  : 0/0
  3657 ;;		Unchanged: 0/0
  3658 ;; Data sizes:     COMRAM   BANK0   BANK1   BANK2   BANK3   BANK4   BANK5   BANK6   BANK7   BANK8   BANK9  BANK10  BANK1
      +1  BANK12
  3659 ;;      Params:         4       0       0       0       0       0       0       0       0       0       0       0       
      +0       0
  3660 ;;      Locals:         1       0       0       0       0       0       0       0       0       0       0       0       
      +0       0
  3661 ;;      Temps:          0       0       0       0       0       0       0       0       0       0       0       0       
      +0       0
  3662 ;;      Totals:         5       0       0       0       0       0       0       0       0       0       0       0       
      +0       0
  3663 ;;Total ram usage:        5 bytes
  3664 ;; Hardware stack levels used:    1
  3665 ;; This function calls:
  3666 ;;		Nothing
  3667 ;; This function is called by:
  3668 ;;		_INT_isr
  3669 ;; This function uses a non-reentrant model
  3670 ;;
  3671                           
  3672                           	psect	text33
  3673  00155A                     __ptext33:
  3674                           	opt callstack 0
  3675  00155A                     i2_MOV_R_PASOS_X:
  3676                           	opt callstack 26
  3677  00155A                     
  3678                           ;STEP_MOTOR.c: 16:     if (posicion < coordenada) {
  3679  00155A  5003               	movf	i2MOV_R_PASOS_X@coordenada^0,w,c
  3680  00155C  5C01               	subwf	i2MOV_R_PASOS_X@posicion^0,w,c
  3681  00155E  5004               	movf	(i2MOV_R_PASOS_X@coordenada+1)^0,w,c
  3682  001560  5802               	subwfb	(i2MOV_R_PASOS_X@posicion+1)^0,w,c
  3683  001562  B0D8               	btfsc	status,0,c
  3684  001564  EFB6  F00A         	goto	i2u89_41
  3685  001568  EFB8  F00A         	goto	i2u89_40
  3686  00156C                     i2u89_41:
  3687  00156C  EFE9  F00A         	goto	i2l126
  3688  001570                     i2u89_40:
  3689  001570                     
  3690                           ;STEP_MOTOR.c: 17:         PORTDbits.RD0 = 0;
  3691  001570  9083               	bcf	131,0,c	;volatile
  3692                           
  3693                           ;STEP_MOTOR.c: 18:         PORTDbits.RD1 = 1;
  3694  001572  8283               	bsf	131,1,c	;volatile
  3695                           
  3696                           ;STEP_MOTOR.c: 19:         for (; posicion < coordenada; posicion++) {
  3697  001574  EFDD  F00A         	goto	i2l1818
  3698  001578                     i2l1804:
  3699                           
  3700                           ;STEP_MOTOR.c: 20:             for (unsigned char i = 0; i < 5; i++) {
  3701  001578  0E00               	movlw	0
  3702  00157A  6E05               	movwf	i2MOV_R_PASOS_X@i^0,c
  3703  00157C  0E04               	movlw	4
  3704  00157E  6405               	cpfsgt	i2MOV_R_PASOS_X@i^0,c
  3705  001580  EFC4  F00A         	goto	i2u90_41
  3706  001584  EFC6  F00A         	goto	i2u90_40
  3707  001588                     i2u90_41:
  3708  001588  EFC8  F00A         	goto	i2l123
  3709  00158C                     i2u90_40:
  3710  00158C  EFDB  F00A         	goto	i2l1816
  3711  001590                     i2l123:
  3712                           
  3713                           ;STEP_MOTOR.c: 21:                 PORTCbits.RC1 = 1;
  3714  001590  8282               	bsf	130,1,c	;volatile
  3715  001592                     
  3716                           ;STEP_MOTOR.c: 22:                 _delay((unsigned long)((1)*(4000000/4000.0)));
  3717  001592  0EC8               	movlw	200
  3718  001594                     i2u152_47:
  3719  001594  D000               	nop2	
  3720  001596  2EE8               	decfsz	wreg,f,c
  3721  001598  D7FD               	bra	i2u152_47
  3722  00159A                     
  3723                           ;STEP_MOTOR.c: 23:                 PORTCbits.RC1 = 0;
  3724  00159A  9282               	bcf	130,1,c	;volatile
  3725                           
  3726                           ;STEP_MOTOR.c: 24:                 _delay((unsigned long)((1)*(4000000/4000.0)));
  3727  00159C  0EC8               	movlw	200
  3728  00159E                     i2u153_47:
  3729  00159E  D000               	nop2	
  3730  0015A0  2EE8               	decfsz	wreg,f,c
  3731  0015A2  D7FD               	bra	i2u153_47
  3732  0015A4                     
  3733                           ;STEP_MOTOR.c: 25:             }
  3734  0015A4  2A05               	incf	i2MOV_R_PASOS_X@i^0,f,c
  3735  0015A6  0E04               	movlw	4
  3736  0015A8  6405               	cpfsgt	i2MOV_R_PASOS_X@i^0,c
  3737  0015AA  EFD9  F00A         	goto	i2u91_41
  3738  0015AE  EFDB  F00A         	goto	i2u91_40
  3739  0015B2                     i2u91_41:
  3740  0015B2  EFC8  F00A         	goto	i2l123
  3741  0015B6                     i2u91_40:
  3742  0015B6                     i2l1816:
  3743                           
  3744                           ;STEP_MOTOR.c: 26:         }
  3745  0015B6  4A01               	infsnz	i2MOV_R_PASOS_X@posicion^0,f,c
  3746  0015B8  2A02               	incf	(i2MOV_R_PASOS_X@posicion+1)^0,f,c
  3747  0015BA                     i2l1818:
  3748  0015BA  5003               	movf	i2MOV_R_PASOS_X@coordenada^0,w,c
  3749  0015BC  5C01               	subwf	i2MOV_R_PASOS_X@posicion^0,w,c
  3750  0015BE  5004               	movf	(i2MOV_R_PASOS_X@coordenada+1)^0,w,c
  3751  0015C0  5802               	subwfb	(i2MOV_R_PASOS_X@posicion+1)^0,w,c
  3752  0015C2  A0D8               	btfss	status,0,c
  3753  0015C4  EFE6  F00A         	goto	i2u92_41
  3754  0015C8  EFE8  F00A         	goto	i2u92_40
  3755  0015CC                     i2u92_41:
  3756  0015CC  EFBC  F00A         	goto	i2l1804
  3757  0015D0                     i2u92_40:
  3758  0015D0                     
  3759                           ;STEP_MOTOR.c: 27:         PORTDbits.RD0 = 1;
  3760  0015D0  8083               	bsf	131,0,c	;volatile
  3761  0015D2                     i2l126:
  3762  0015D2  0012               	return		;funcret
  3763  0015D4                     __end_ofi2_MOV_R_PASOS_X:
  3764                           	opt callstack 0
  3765                           
  3766 ;; *************** function i2_MOV_L_PASOS_Y *****************
  3767 ;; Defined at:
  3768 ;;		line 69 in file "STEP_MOTOR.c"
  3769 ;; Parameters:    Size  Location     Type
  3770 ;;  posicion        2    0[COMRAM] unsigned short 
  3771 ;;  coordenada      2    2[COMRAM] unsigned short 
  3772 ;; Auto vars:     Size  Location     Type
  3773 ;;  MOV_L_PASOS_    1    4[COMRAM] unsigned char 
  3774 ;; Return value:  Size  Location     Type
  3775 ;;                  2    0[COMRAM] unsigned short 
  3776 ;; Registers used:
  3777 ;;		wreg, status,2, status,0
  3778 ;; Tracked objects:
  3779 ;;		On entry : 0/0
  3780 ;;		On exit  : 0/0
  3781 ;;		Unchanged: 0/0
  3782 ;; Data sizes:     COMRAM   BANK0   BANK1   BANK2   BANK3   BANK4   BANK5   BANK6   BANK7   BANK8   BANK9  BANK10  BANK1
      +1  BANK12
  3783 ;;      Params:         4       0       0       0       0       0       0       0       0       0       0       0       
      +0       0
  3784 ;;      Locals:         1       0       0       0       0       0       0       0       0       0       0       0       
      +0       0
  3785 ;;      Temps:          0       0       0       0       0       0       0       0       0       0       0       0       
      +0       0
  3786 ;;      Totals:         5       0       0       0       0       0       0       0       0       0       0       0       
      +0       0
  3787 ;;Total ram usage:        5 bytes
  3788 ;; Hardware stack levels used:    1
  3789 ;; This function calls:
  3790 ;;		Nothing
  3791 ;; This function is called by:
  3792 ;;		_INT_isr
  3793 ;; This function uses a non-reentrant model
  3794 ;;
  3795                           
  3796                           	psect	text34
  3797  0013E8                     __ptext34:
  3798                           	opt callstack 0
  3799  0013E8                     i2_MOV_L_PASOS_Y:
  3800                           	opt callstack 26
  3801  0013E8                     
  3802                           ;STEP_MOTOR.c: 70:     if (posicion > coordenada) {
  3803  0013E8  5001               	movf	i2MOV_L_PASOS_Y@posicion^0,w,c
  3804  0013EA  5C03               	subwf	i2MOV_L_PASOS_Y@coordenada^0,w,c
  3805  0013EC  5002               	movf	(i2MOV_L_PASOS_Y@posicion+1)^0,w,c
  3806  0013EE  5804               	subwfb	(i2MOV_L_PASOS_Y@coordenada+1)^0,w,c
  3807  0013F0  B0D8               	btfsc	status,0,c
  3808  0013F2  EFFD  F009         	goto	i2u101_41
  3809  0013F6  EFFF  F009         	goto	i2u101_40
  3810  0013FA                     i2u101_41:
  3811  0013FA  EF31  F00A         	goto	i2l153
  3812  0013FE                     i2u101_40:
  3813  0013FE                     
  3814                           ;STEP_MOTOR.c: 71:         PORTDbits.RD2 = 0;
  3815  0013FE  9483               	bcf	131,2,c	;volatile
  3816                           
  3817                           ;STEP_MOTOR.c: 72:         PORTDbits.RD3 = 0;
  3818  001400  9683               	bcf	131,3,c	;volatile
  3819                           
  3820                           ;STEP_MOTOR.c: 73:         for (; posicion > coordenada; posicion--) {
  3821  001402  EF25  F00A         	goto	i2l1878
  3822  001406                     i2l1864:
  3823                           
  3824                           ;STEP_MOTOR.c: 74:             for (unsigned char i = 0; i < 5; i++) {
  3825  001406  0E00               	movlw	0
  3826  001408  6E05               	movwf	i2MOV_L_PASOS_Y@i^0,c
  3827  00140A  0E04               	movlw	4
  3828  00140C  6405               	cpfsgt	i2MOV_L_PASOS_Y@i^0,c
  3829  00140E  EF0B  F00A         	goto	i2u102_41
  3830  001412  EF0D  F00A         	goto	i2u102_40
  3831  001416                     i2u102_41:
  3832  001416  EF0F  F00A         	goto	i2l150
  3833  00141A                     i2u102_40:
  3834  00141A  EF22  F00A         	goto	i2l1876
  3835  00141E                     i2l150:
  3836                           
  3837                           ;STEP_MOTOR.c: 75:                 PORTCbits.RC2 = 1;
  3838  00141E  8482               	bsf	130,2,c	;volatile
  3839  001420                     
  3840                           ;STEP_MOTOR.c: 76:                 _delay((unsigned long)((1)*(4000000/4000.0)));
  3841  001420  0EC8               	movlw	200
  3842  001422                     i2u154_47:
  3843  001422  D000               	nop2	
  3844  001424  2EE8               	decfsz	wreg,f,c
  3845  001426  D7FD               	bra	i2u154_47
  3846  001428                     
  3847                           ;STEP_MOTOR.c: 77:                 PORTCbits.RC2 = 0;
  3848  001428  9482               	bcf	130,2,c	;volatile
  3849                           
  3850                           ;STEP_MOTOR.c: 78:                 _delay((unsigned long)((1)*(4000000/4000.0)));
  3851  00142A  0EC8               	movlw	200
  3852  00142C                     i2u155_47:
  3853  00142C  D000               	nop2	
  3854  00142E  2EE8               	decfsz	wreg,f,c
  3855  001430  D7FD               	bra	i2u155_47
  3856  001432                     
  3857                           ;STEP_MOTOR.c: 79:             }
  3858  001432  2A05               	incf	i2MOV_L_PASOS_Y@i^0,f,c
  3859  001434  0E04               	movlw	4
  3860  001436  6405               	cpfsgt	i2MOV_L_PASOS_Y@i^0,c
  3861  001438  EF20  F00A         	goto	i2u103_41
  3862  00143C  EF22  F00A         	goto	i2u103_40
  3863  001440                     i2u103_41:
  3864  001440  EF0F  F00A         	goto	i2l150
  3865  001444                     i2u103_40:
  3866  001444                     i2l1876:
  3867                           
  3868                           ;STEP_MOTOR.c: 80:         }
  3869  001444  0601               	decf	i2MOV_L_PASOS_Y@posicion^0,f,c
  3870  001446  A0D8               	btfss	status,0,c
  3871  001448  0602               	decf	(i2MOV_L_PASOS_Y@posicion+1)^0,f,c
  3872  00144A                     i2l1878:
  3873  00144A  5001               	movf	i2MOV_L_PASOS_Y@posicion^0,w,c
  3874  00144C  5C03               	subwf	i2MOV_L_PASOS_Y@coordenada^0,w,c
  3875  00144E  5002               	movf	(i2MOV_L_PASOS_Y@posicion+1)^0,w,c
  3876  001450  5804               	subwfb	(i2MOV_L_PASOS_Y@coordenada+1)^0,w,c
  3877  001452  A0D8               	btfss	status,0,c
  3878  001454  EF2E  F00A         	goto	i2u104_41
  3879  001458  EF30  F00A         	goto	i2u104_40
  3880  00145C                     i2u104_41:
  3881  00145C  EF03  F00A         	goto	i2l1864
  3882  001460                     i2u104_40:
  3883  001460                     
  3884                           ;STEP_MOTOR.c: 81:         PORTDbits.RD2 = 1;
  3885  001460  8483               	bsf	131,2,c	;volatile
  3886  001462                     i2l153:
  3887  001462  0012               	return		;funcret
  3888  001464                     __end_ofi2_MOV_L_PASOS_Y:
  3889                           	opt callstack 0
  3890                           
  3891 ;; *************** function i2_MOV_L_PASOS_X *****************
  3892 ;; Defined at:
  3893 ;;		line 33 in file "STEP_MOTOR.c"
  3894 ;; Parameters:    Size  Location     Type
  3895 ;;  posicion        2    0[COMRAM] unsigned short 
  3896 ;;  coordenada      2    2[COMRAM] unsigned short 
  3897 ;; Auto vars:     Size  Location     Type
  3898 ;;  MOV_L_PASOS_    1    4[COMRAM] unsigned char 
  3899 ;; Return value:  Size  Location     Type
  3900 ;;                  2    0[COMRAM] unsigned short 
  3901 ;; Registers used:
  3902 ;;		wreg, status,2, status,0
  3903 ;; Tracked objects:
  3904 ;;		On entry : 0/0
  3905 ;;		On exit  : 0/0
  3906 ;;		Unchanged: 0/0
  3907 ;; Data sizes:     COMRAM   BANK0   BANK1   BANK2   BANK3   BANK4   BANK5   BANK6   BANK7   BANK8   BANK9  BANK10  BANK1
      +1  BANK12
  3908 ;;      Params:         4       0       0       0       0       0       0       0       0       0       0       0       
      +0       0
  3909 ;;      Locals:         1       0       0       0       0       0       0       0       0       0       0       0       
      +0       0
  3910 ;;      Temps:          0       0       0       0       0       0       0       0       0       0       0       0       
      +0       0
  3911 ;;      Totals:         5       0       0       0       0       0       0       0       0       0       0       0       
      +0       0
  3912 ;;Total ram usage:        5 bytes
  3913 ;; Hardware stack levels used:    1
  3914 ;; This function calls:
  3915 ;;		Nothing
  3916 ;; This function is called by:
  3917 ;;		_INT_isr
  3918 ;; This function uses a non-reentrant model
  3919 ;;
  3920                           
  3921                           	psect	text35
  3922  001464                     __ptext35:
  3923                           	opt callstack 0
  3924  001464                     i2_MOV_L_PASOS_X:
  3925                           	opt callstack 26
  3926  001464                     
  3927                           ;STEP_MOTOR.c: 34:     if (posicion > coordenada) {
  3928  001464  5001               	movf	i2MOV_L_PASOS_X@posicion^0,w,c
  3929  001466  5C03               	subwf	i2MOV_L_PASOS_X@coordenada^0,w,c
  3930  001468  5002               	movf	(i2MOV_L_PASOS_X@posicion+1)^0,w,c
  3931  00146A  5804               	subwfb	(i2MOV_L_PASOS_X@coordenada+1)^0,w,c
  3932  00146C  B0D8               	btfsc	status,0,c
  3933  00146E  EF3B  F00A         	goto	i2u93_41
  3934  001472  EF3D  F00A         	goto	i2u93_40
  3935  001476                     i2u93_41:
  3936  001476  EF6F  F00A         	goto	i2l135
  3937  00147A                     i2u93_40:
  3938  00147A                     
  3939                           ;STEP_MOTOR.c: 35:         PORTDbits.RD0 = 0;
  3940  00147A  9083               	bcf	131,0,c	;volatile
  3941                           
  3942                           ;STEP_MOTOR.c: 36:         PORTDbits.RD1 = 0;
  3943  00147C  9283               	bcf	131,1,c	;volatile
  3944                           
  3945                           ;STEP_MOTOR.c: 37:         for (; posicion > coordenada; posicion--) {
  3946  00147E  EF63  F00A         	goto	i2l1838
  3947  001482                     i2l1824:
  3948                           
  3949                           ;STEP_MOTOR.c: 38:             for (unsigned char i = 0; i < 5; i++) {
  3950  001482  0E00               	movlw	0
  3951  001484  6E05               	movwf	i2MOV_L_PASOS_X@i^0,c
  3952  001486  0E04               	movlw	4
  3953  001488  6405               	cpfsgt	i2MOV_L_PASOS_X@i^0,c
  3954  00148A  EF49  F00A         	goto	i2u94_41
  3955  00148E  EF4B  F00A         	goto	i2u94_40
  3956  001492                     i2u94_41:
  3957  001492  EF4D  F00A         	goto	i2l132
  3958  001496                     i2u94_40:
  3959  001496  EF60  F00A         	goto	i2l1836
  3960  00149A                     i2l132:
  3961                           
  3962                           ;STEP_MOTOR.c: 39:                 PORTCbits.RC1 = 1;
  3963  00149A  8282               	bsf	130,1,c	;volatile
  3964  00149C                     
  3965                           ;STEP_MOTOR.c: 40:                 _delay((unsigned long)((1)*(4000000/4000.0)));
  3966  00149C  0EC8               	movlw	200
  3967  00149E                     i2u156_47:
  3968  00149E  D000               	nop2	
  3969  0014A0  2EE8               	decfsz	wreg,f,c
  3970  0014A2  D7FD               	bra	i2u156_47
  3971  0014A4                     
  3972                           ;STEP_MOTOR.c: 41:                 PORTCbits.RC1 = 0;
  3973  0014A4  9282               	bcf	130,1,c	;volatile
  3974                           
  3975                           ;STEP_MOTOR.c: 42:                 _delay((unsigned long)((1)*(4000000/4000.0)));
  3976  0014A6  0EC8               	movlw	200
  3977  0014A8                     i2u157_47:
  3978  0014A8  D000               	nop2	
  3979  0014AA  2EE8               	decfsz	wreg,f,c
  3980  0014AC  D7FD               	bra	i2u157_47
  3981  0014AE                     
  3982                           ;STEP_MOTOR.c: 43:             }
  3983  0014AE  2A05               	incf	i2MOV_L_PASOS_X@i^0,f,c
  3984  0014B0  0E04               	movlw	4
  3985  0014B2  6405               	cpfsgt	i2MOV_L_PASOS_X@i^0,c
  3986  0014B4  EF5E  F00A         	goto	i2u95_41
  3987  0014B8  EF60  F00A         	goto	i2u95_40
  3988  0014BC                     i2u95_41:
  3989  0014BC  EF4D  F00A         	goto	i2l132
  3990  0014C0                     i2u95_40:
  3991  0014C0                     i2l1836:
  3992                           
  3993                           ;STEP_MOTOR.c: 44:         }
  3994  0014C0  0601               	decf	i2MOV_L_PASOS_X@posicion^0,f,c
  3995  0014C2  A0D8               	btfss	status,0,c
  3996  0014C4  0602               	decf	(i2MOV_L_PASOS_X@posicion+1)^0,f,c
  3997  0014C6                     i2l1838:
  3998  0014C6  5001               	movf	i2MOV_L_PASOS_X@posicion^0,w,c
  3999  0014C8  5C03               	subwf	i2MOV_L_PASOS_X@coordenada^0,w,c
  4000  0014CA  5002               	movf	(i2MOV_L_PASOS_X@posicion+1)^0,w,c
  4001  0014CC  5804               	subwfb	(i2MOV_L_PASOS_X@coordenada+1)^0,w,c
  4002  0014CE  A0D8               	btfss	status,0,c
  4003  0014D0  EF6C  F00A         	goto	i2u96_41
  4004  0014D4  EF6E  F00A         	goto	i2u96_40
  4005  0014D8                     i2u96_41:
  4006  0014D8  EF41  F00A         	goto	i2l1824
  4007  0014DC                     i2u96_40:
  4008  0014DC                     
  4009                           ;STEP_MOTOR.c: 45:         PORTDbits.RD0 = 1;
  4010  0014DC  8083               	bsf	131,0,c	;volatile
  4011  0014DE                     i2l135:
  4012  0014DE  0012               	return		;funcret
  4013  0014E0                     __end_ofi2_MOV_L_PASOS_X:
  4014                           	opt callstack 0
  4015                           
  4016                           	psect	rparam
  4017  0000                     
  4018                           	psect	temp
  4019  000037                     btemp:
  4020                           	opt callstack 0
  4021  000037                     	ds	1
  4022  0000                     int$flags	set	btemp
  4023  0000                     wtemp8	set	btemp+1
  4024  0000                     ttemp5	set	btemp+1
  4025  0000                     ttemp6	set	btemp+4
  4026  0000                     ttemp7	set	btemp+8
  4027                           tosu	equ	0xFFF
  4028                           tosh	equ	0xFFE
  4029                           tosl	equ	0xFFD
  4030                           stkptr	equ	0xFFC
  4031                           pclatu	equ	0xFFB
  4032                           pclath	equ	0xFFA
  4033                           pcl	equ	0xFF9
  4034                           tblptru	equ	0xFF8
  4035                           tblptrh	equ	0xFF7
  4036                           tblptrl	equ	0xFF6
  4037                           tablat	equ	0xFF5
  4038                           prodh	equ	0xFF4
  4039                           prodl	equ	0xFF3
  4040                           indf0	equ	0xFEF
  4041                           postinc0	equ	0xFEE
  4042                           postdec0	equ	0xFED
  4043                           preinc0	equ	0xFEC
  4044                           plusw0	equ	0xFEB
  4045                           fsr0h	equ	0xFEA
  4046                           fsr0l	equ	0xFE9
  4047                           wreg	equ	0xFE8
  4048                           indf1	equ	0xFE7
  4049                           postinc1	equ	0xFE6
  4050                           postdec1	equ	0xFE5
  4051                           preinc1	equ	0xFE4
  4052                           plusw1	equ	0xFE3
  4053                           fsr1h	equ	0xFE2
  4054                           fsr1l	equ	0xFE1
  4055                           bsr	equ	0xFE0
  4056                           indf2	equ	0xFDF
  4057                           postinc2	equ	0xFDE
  4058                           postdec2	equ	0xFDD
  4059                           preinc2	equ	0xFDC
  4060                           plusw2	equ	0xFDB
  4061                           fsr2h	equ	0xFDA
  4062                           fsr2l	equ	0xFD9
  4063                           status	equ	0xFD8


Data Sizes:
    Strings     92
    Constant    0
    Data        0
    BSS         18
    Persistent  0
    Stack       0

Auto Spaces:
    Space          Size  Autos    Used
    COMRAM           94     36      54
    BANK0           160      0       0
    BANK1           256      0       0
    BANK2           256      0       0
    BANK3           256      0       0
    BANK4           256      0       0
    BANK5           256      0       0
    BANK6           256      0       0
    BANK7           256      0       0
    BANK8           256      0       0
    BANK9           256      0       0
    BANK10          256      0       0
    BANK11          256      0       0
    BANK12          256      0       0

Pointer List with Targets:

    main@Ptrcoordenadas	PTR unsigned char  size(2) Largest target is 6
		 -> main@Instruccion(COMRAM[6]), 

    RECEIVE_STRING@guardarscan	PTR unsigned char  size(2) Largest target is 6
		 -> main@Instruccion(COMRAM[6]), 

    SEND_STRING@PointString	PTR unsigned char  size(2) Largest target is 29
		 -> STR_5(CODE[11]), STR_4(CODE[11]), STR_3(CODE[19]), STR_2(CODE[29]), 
		 -> STR_1(CODE[22]), 


Critical Paths under _main in COMRAM

    _main->_RECEIVE_STRING
    _TERMINADO->_SEND_STRING
    _RECEIVE_STRING->_RECEIVE_UART
    _PROCESO->_SEND_STRING
    _FALTA_DATO->_SEND_STRING
    _ERROR_NO_COMANDO->_SEND_STRING
    _ERROR_FUERA_LIMITE->_SEND_STRING
    _SEND_STRING->_SEND_UART

Critical Paths under _INT_isr in COMRAM

    _INT_isr->i2_MOV_L_PASOS_X
    _INT_isr->i2_MOV_L_PASOS_Y
    _INT_isr->i2_MOV_R_PASOS_X
    _INT_isr->i2_MOV_R_PASOS_Y

Critical Paths under _main in BANK0

    None.

Critical Paths under _INT_isr in BANK0

    None.

Critical Paths under _main in BANK1

    None.

Critical Paths under _INT_isr in BANK1

    None.

Critical Paths under _main in BANK2

    None.

Critical Paths under _INT_isr in BANK2

    None.

Critical Paths under _main in BANK3

    None.

Critical Paths under _INT_isr in BANK3

    None.

Critical Paths under _main in BANK4

    None.

Critical Paths under _INT_isr in BANK4

    None.

Critical Paths under _main in BANK5

    None.

Critical Paths under _INT_isr in BANK5

    None.

Critical Paths under _main in BANK6

    None.

Critical Paths under _INT_isr in BANK6

    None.

Critical Paths under _main in BANK7

    None.

Critical Paths under _INT_isr in BANK7

    None.

Critical Paths under _main in BANK8

    None.

Critical Paths under _INT_isr in BANK8

    None.

Critical Paths under _main in BANK9

    None.

Critical Paths under _INT_isr in BANK9

    None.

Critical Paths under _main in BANK10

    None.

Critical Paths under _INT_isr in BANK10

    None.

Critical Paths under _main in BANK11

    None.

Critical Paths under _INT_isr in BANK11

    None.

Critical Paths under _main in BANK12

    None.

Critical Paths under _INT_isr in BANK12

    None.

Call Graph Tables:

 ---------------------------------------------------------------------------------
 (Depth) Function   	        Calls       Base Space   Used Autos Params    Refs
 ---------------------------------------------------------------------------------
 (0) _main                                                23    23      0    6952
                                             13 COMRAM    23    23      0
                      _DOWN_PLATFORM
                 _ERROR_FUERA_LIMITE
                         _ERROR_LEDS
                   _ERROR_NO_COMANDO
                         _FALTA_DATO
                       _INIT_BUTTONS
                            _INIT_DC
                          _INIT_GPIO
                           _INIT_INT
                          _INIT_LEDS
                          _INIT_STEP
                          _INIT_UART
                           _LEDS_OFF
                      _MOV_L_PASOS_X
                      _MOV_L_PASOS_Y
                      _MOV_R_PASOS_X
                      _MOV_R_PASOS_Y
                            _PROCESO
                       _PROCESO_LEDS
                     _RECEIVE_STRING
                       _RECEIVE_UART
                          _TERMINADO
                     _TERMINADO_LEDS
                        _UP_PLATFORM
                             ___wmul
 ---------------------------------------------------------------------------------
 (1) ___wmul                                               6     2      4     767
                                              5 COMRAM     6     2      4
 ---------------------------------------------------------------------------------
 (1) _UP_PLATFORM                                          0     0      0       0
                           _MOV_R_DC
                        _MOV_STOP_DC
 ---------------------------------------------------------------------------------
 (2) _MOV_R_DC                                             0     0      0       0
 ---------------------------------------------------------------------------------
 (1) _TERMINADO_LEDS                                       0     0      0       0
 ---------------------------------------------------------------------------------
 (1) _TERMINADO                                            0     0      0     588
                        _SEND_STRING
                          _SEND_UART
 ---------------------------------------------------------------------------------
 (1) _RECEIVE_STRING                                       4     1      3     257
                                              9 COMRAM     4     1      3
                       _RECEIVE_UART
 ---------------------------------------------------------------------------------
 (1) _RECEIVE_UART                                         4     4      0      15
                                              5 COMRAM     4     4      0
 ---------------------------------------------------------------------------------
 (1) _PROCESO_LEDS                                         0     0      0       0
 ---------------------------------------------------------------------------------
 (1) _PROCESO                                              0     0      0     588
                        _SEND_STRING
                          _SEND_UART
 ---------------------------------------------------------------------------------
 (1) _MOV_R_PASOS_Y                                        5     1      4     432
                                              5 COMRAM     5     1      4
 ---------------------------------------------------------------------------------
 (1) _MOV_R_PASOS_X                                        5     1      4     432
                                              5 COMRAM     5     1      4
 ---------------------------------------------------------------------------------
 (1) _MOV_L_PASOS_Y                                        5     1      4     736
                                              5 COMRAM     5     1      4
 ---------------------------------------------------------------------------------
 (1) _MOV_L_PASOS_X                                        5     1      4     736
                                              5 COMRAM     5     1      4
 ---------------------------------------------------------------------------------
 (1) _LEDS_OFF                                             0     0      0       0
 ---------------------------------------------------------------------------------
 (1) _INIT_UART                                            0     0      0       0
 ---------------------------------------------------------------------------------
 (1) _INIT_STEP                                            0     0      0       0
 ---------------------------------------------------------------------------------
 (1) _INIT_LEDS                                            0     0      0       0
 ---------------------------------------------------------------------------------
 (1) _INIT_INT                                             0     0      0       0
 ---------------------------------------------------------------------------------
 (1) _INIT_GPIO                                            0     0      0       0
 ---------------------------------------------------------------------------------
 (1) _INIT_DC                                              0     0      0       0
 ---------------------------------------------------------------------------------
 (1) _INIT_BUTTONS                                         0     0      0       0
 ---------------------------------------------------------------------------------
 (1) _FALTA_DATO                                           0     0      0     588
                        _SEND_STRING
                          _SEND_UART
 ---------------------------------------------------------------------------------
 (1) _ERROR_NO_COMANDO                                     0     0      0     588
                        _SEND_STRING
                          _SEND_UART
 ---------------------------------------------------------------------------------
 (1) _ERROR_LEDS                                           0     0      0       0
 ---------------------------------------------------------------------------------
 (1) _ERROR_FUERA_LIMITE                                   0     0      0     588
                        _SEND_STRING
                          _SEND_UART
 ---------------------------------------------------------------------------------
 (2) _SEND_STRING                                          5     3      2     573
                                              6 COMRAM     5     3      2
                          _SEND_UART
 ---------------------------------------------------------------------------------
 (2) _SEND_UART                                            1     1      0      15
                                              5 COMRAM     1     1      0
 ---------------------------------------------------------------------------------
 (1) _DOWN_PLATFORM                                        0     0      0       0
                           _MOV_L_DC
                        _MOV_STOP_DC
 ---------------------------------------------------------------------------------
 (2) _MOV_STOP_DC                                          0     0      0       0
 ---------------------------------------------------------------------------------
 (2) _MOV_L_DC                                             0     0      0       0
 ---------------------------------------------------------------------------------
 Estimated maximum stack depth 2
 ---------------------------------------------------------------------------------
 (Depth) Function   	        Calls       Base Space   Used Autos Params    Refs
 ---------------------------------------------------------------------------------
 (4) _INT_isr                                              0     0      0     864
                    i2_MOV_L_PASOS_X
                    i2_MOV_L_PASOS_Y
                    i2_MOV_R_PASOS_X
                    i2_MOV_R_PASOS_Y
 ---------------------------------------------------------------------------------
 (5) i2_MOV_R_PASOS_Y                                      5     1      4     216
                                              0 COMRAM     5     1      4
 ---------------------------------------------------------------------------------
 (5) i2_MOV_R_PASOS_X                                      5     1      4     216
                                              0 COMRAM     5     1      4
 ---------------------------------------------------------------------------------
 (5) i2_MOV_L_PASOS_Y                                      5     1      4     216
                                              0 COMRAM     5     1      4
 ---------------------------------------------------------------------------------
 (5) i2_MOV_L_PASOS_X                                      5     1      4     216
                                              0 COMRAM     5     1      4
 ---------------------------------------------------------------------------------
 Estimated maximum stack depth 5
 ---------------------------------------------------------------------------------

 Call Graph Graphs:

 _main (ROOT)
   _DOWN_PLATFORM
     _MOV_L_DC
     _MOV_STOP_DC
   _ERROR_FUERA_LIMITE
     _SEND_STRING
       _SEND_UART
     _SEND_UART
   _ERROR_LEDS
   _ERROR_NO_COMANDO
     _SEND_STRING
       _SEND_UART
     _SEND_UART
   _FALTA_DATO
     _SEND_STRING
       _SEND_UART
     _SEND_UART
   _INIT_BUTTONS
   _INIT_DC
   _INIT_GPIO
   _INIT_INT
   _INIT_LEDS
   _INIT_STEP
   _INIT_UART
   _LEDS_OFF
   _MOV_L_PASOS_X
   _MOV_L_PASOS_Y
   _MOV_R_PASOS_X
   _MOV_R_PASOS_Y
   _PROCESO
     _SEND_STRING
       _SEND_UART
     _SEND_UART
   _PROCESO_LEDS
   _RECEIVE_STRING
     _RECEIVE_UART
   _RECEIVE_UART
   _TERMINADO
     _SEND_STRING
       _SEND_UART
     _SEND_UART
   _TERMINADO_LEDS
   _UP_PLATFORM
     _MOV_R_DC
     _MOV_STOP_DC
   ___wmul

 _INT_isr (ROOT)
   i2_MOV_L_PASOS_X
   i2_MOV_L_PASOS_Y
   i2_MOV_R_PASOS_X
   i2_MOV_R_PASOS_Y

 Address spaces:
Name               Size   Autos  Total    Cost      Usage
BIGRAM             CFF      0       0      31        0.0%
EEDATA             400      0       0       0        0.0%
BITBANK12          100      0       0      29        0.0%
BANK12             100      0       0      30        0.0%
BITBANK11          100      0       0      27        0.0%
BANK11             100      0       0      28        0.0%
BITBANK10          100      0       0      25        0.0%
BANK10             100      0       0      26        0.0%
BITBANK9           100      0       0      23        0.0%
BANK9              100      0       0      24        0.0%
BITBANK8           100      0       0      21        0.0%
BANK8              100      0       0      22        0.0%
BITBANK7           100      0       0      18        0.0%
BANK7              100      0       0      19        0.0%
BITBANK6           100      0       0      16        0.0%
BANK6              100      0       0      17        0.0%
BITBANK5           100      0       0      14        0.0%
BANK5              100      0       0      15        0.0%
BITBANK4           100      0       0      12        0.0%
BANK4              100      0       0      13        0.0%
BITBANK3           100      0       0      10        0.0%
BANK3              100      0       0      11        0.0%
BITBANK2           100      0       0       8        0.0%
BANK2              100      0       0       9        0.0%
BITBANK1           100      0       0       6        0.0%
BANK1              100      0       0       7        0.0%
BITBANK0            A0      0       0       4        0.0%
BANK0               A0      0       0       5        0.0%
BITCOMRAM           5E      0       0       0        0.0%
COMRAM              5E     24      36       1       57.4%
BITSFR_3             0      0       0     200        0.0%
SFR_3                0      0       0     200        0.0%
BITSFR_2             0      0       0     200        0.0%
SFR_2                0      0       0     200        0.0%
BITSFR_1             0      0       0     200        0.0%
SFR_1                0      0       0     200        0.0%
BITSFR               0      0       0     200        0.0%
SFR                  0      0       0     200        0.0%
STACK                0      0       0       2        0.0%
NULL                 0      0       0       0        0.0%
ABS                  0      0      36      20        0.0%
DATA                 0      0      36       3        0.0%
CODE                 0      0       0       0        0.0%


Microchip Technology PIC18 Macro Assembler V2.10 build 88905656 
Symbol Table                                                                                   Wed Dec 11 20:53:50 2019

               main@Decenasx 0014                 main@Decenasy 001A                _DOWN_PLATFORM 18C4  
                          _X 002F                            _Y 002D                           l21 19DC  
                         l15 19D6                           l33 18DE                           l17 19D8  
                         l19 19DA                           l51 19CE                           l27 18C2  
                         l44 19A4                           l60 19A6                           l53 19D0  
                         l62 19A8                           l71 19F0                           l55 19D2  
                         l80 19E8                           l64 19AA                           l73 19F2  
                         l57 19D4                           l82 19EA                           l66 19AC  
                         l75 19F4                           l84 19EC                           l69 19EE  
                         l78 19E6                           l98 13E6                           u10 1972  
                         u11 196E                           u50 17E4                           u51 17E0  
                         u60 1804                           u61 1800                           u70 18BE  
                         u71 18BA                           u80 18DA                           u81 18D6  
        ___wmul@multiplicand 0008                main@Centenasx 0012                main@Centenasy 0018  
                ?_ERROR_LEDS 0001                          l104 183E                          l123 175C  
                        l132 166E                          l117 1996                          l125 179C  
                        l141 16E6                          l134 16B0                          l150 15F6  
                        l126 17AE                          l310 0E08                          l135 16C2  
                        l143 1726                          l311 0E28                          l152 1638  
                        l144 1738                          l401 19C2                          l153 164A  
                        l410 19E2                          l403 19C4                          l180 1976  
                        l412 19E4                          l421 19BC                          l317 0E3C  
                        l406 19DE                          l174 1988                          l430 19B4  
                        l415 19B6                          l408 19E0                          l360 1888  
                        l424 19AE                          l177 1964                          l417 19B8  
                        l433 1864                          l186 180E                          l426 19B0  
                        l419 19BA                          l187 1804                          l372 1960  
                        l428 19B2                          l381 192C                          l390 19C8  
                        l375 18F8                          l392 19CA                          l369 1946  
                        l394 19CC                          l378 1912                          l388 19C6  
                        l397 19BE                          l399 19C0                          u800 1662  
                        u801 165E                          u730 138E                          u810 1694  
                        u731 138A                          u811 1690                          u740 13B4  
                        u820 16B0                          u741 13B0                          u821 16AC  
                        u750 13E6                          u830 16DA                          u751 13E2  
                        u831 16D6                          u840 170C                          u760 183E  
                        u841 1708                          u761 183A                          u770 1750  
                        u850 1726                          u771 174C                          u851 1722  
                        u860 15EA                          u780 1782                          u861 15E6  
                        u781 177E                          u870 161C                          u790 179C  
                        u871 1618                          u791 1798                          u880 1638  
                        u881 1634                  main@Unidadx 0016                  main@Unidady 001C  
                        wreg 000FE8      i2MOV_L_PASOS_X@posicion 0001      i2MOV_R_PASOS_X@posicion 0001  
               __CFG_LVP$OFF 000000              __end_of_INIT_DC 19D6          __size_of_FALTA_DATO 001A  
               __CFG_WDT$OFF 000000                         l2000 0F84                         l1106 1964  
                       l1130 17C4                         l2010 0FA2                         l2002 0F86  
                       l1108 1972                         l1140 1808                         l1132 17E4  
                       l2100 1240                         l2020 0FD2                         l2012 0FAA  
                       l2004 0F98                         l1150 18BE                         l2110 127A  
                       l2102 1256                         l2030 1046                         l2022 0FE2  
                       l2006 0F9C                         l2014 0FB2                         l1152 18C4  
                       l1160 1998                         l1136 17EA                         l1128 17B0  
                       l1144 18A8                         l2112 127E                         l2104 125A  
                       l2120 1296                         l2040 10BA                         l2032 1066  
                       l2024 1002                         l2008 0F9E                         l2016 0FB6  
                       l1154 18C8                         l1162 199C                         l1138 17F6  
                       l1146 18AC                         l2122 129A                         l2114 1282  
                       l2106 1276                         l2050 10F2                         l2042 10CA  
                       l2034 1086                         l2026 1022                         l2018 0FCA  
                       l1156 18CC                         l1164 199E                         l1260 1866  
                       l1148 18B0                         l2116 1286                         l2108 1278  
                       l2060 111E                         l2052 10F6                         l2044 10CE  
                       l2036 1092                         l2028 102E                         l2124 129E  
                       l1158 18DA                         l1174 198A                         l2126 12B0  
                       l2118 128E                         l2070 1162                         l2062 1122  
                       l2054 10FA                         l2046 10D2                         l2038 10AA  
                       l1256 1978                         l2080 119A                         l2072 1166  
                       l2064 1132                         l2056 110A                         l2048 10E2  
                       l1258 197C                         l2090 11EA                         l2082 119E  
                       l2074 117C                         l2066 1148                         l2058 111A  
                       l1700 1782                         l2092 11EE                         l2084 11B4  
                       l2076 1192                         l2068 115E                         l1702 1786  
                       l2094 120A                         l2086 11B8                         l2078 1196  
                       l1720 1694                         l1704 164C                         l2096 1220  
                       l2088 11D4                         l1714 1670                         l1722 169A  
                       l1706 1662                         l2098 1224                         l1660 1364  
                       l1716 1678                         l1708 166A                         l1740 170C  
                       l1724 16C4                         l1900 0D9C                         l1670 13B8  
                       l1718 1682                         l1734 16E8                         l1742 1710  
                       l1726 16DA                         l1910 0DF8                         l1902 0DB0  
                       l1672 13D4                         l1760 161C                         l1744 15D4  
                       l1736 16F0                         l1728 16E2                         l1680 182A  
                       l1920 0E44                         l1912 0E0E                         l1904 0DC4  
                       l1674 13D6                         l1666 1368                         l1754 15F8  
                       l1762 1622                         l1746 15EA                         l1738 16FA  
                       l1770 18FA                         l1682 182C                         l1930 0E90  
                       l1922 0E56                         l1914 0E16                         l1906 0DD8  
                       l1668 138E                         l1764 192E                         l1756 1600  
                       l1748 15F2                         l1684 173A                         l1772 1900  
                       l1676 1810                         l1780 18F2                         l1940 0EB2  
                       l1932 0E94                         l1924 0E68                         l1916 0E24  
                       l1908 0DE8                         l1790 194E                         l1766 1934  
                       l1782 1914                         l1758 160A                         l1694 175E  
                       l1686 1750                         l1774 190C                         l1678 1818  
                       l1950 0EF4                         l1942 0EB6                         l1926 0E7A  
                       l1934 0E98                         l1918 0E3E                         l1792 195A  
                       l1768 1940                         l1784 191A                         l1696 1766  
                       l1688 1758                         l1776 18E0                         l1952 0EF8  
                       l1944 0EB8                         l1936 0EAA                         l1960 0F00  
                       l1928 0E8C                         l1880 0D5E                         l1786 1926  
                       l1698 1770                         l1778 18E6                         l1794 1840  
                       l1970 0F24                         l1962 0F12                         l1954 0EFA  
                       l1946 0ED4                         l1938 0EAE                         l1890 0D86  
                       l1882 0D62                         l1788 1948                         l1796 185C  
                       l1980 0F4A                         l1964 0F16                         l1972 0F2C  
                       l1956 0EFC                         l1948 0EF0                         l1892 0D8A  
                       l1884 0D64                         l1990 0F76                         l1982 0F4C  
                       l1974 0F3E                         l1966 0F18                         l1958 0EFE  
                       l1894 0D8E                         l1886 0D7A                         l1992 0F7A  
                       l1984 0F5C                         l1976 0F42                         l1968 0F1C  
                       l1896 0D92                         l1888 0D82                         l1994 0F7E  
                       l1986 0F5E                         l1978 0F46                         l1898 0D96  
                       l1996 0F80                         l1988 0F74                         l1998 0F82  
                       STR_1 0D1E                         STR_2 0D01                         STR_3 0D34  
                       STR_4 0D47                         STR_5 0D52      i2MOV_L_PASOS_Y@posicion 0001  
                       u1100 0E38                         u1101 0E34                         u1110 0E56  
                       u1111 0E52                         u1200 10BA                         u1120 0E68  
                       u1201 10B6                         u1121 0E64      i2MOV_R_PASOS_Y@posicion 0001  
                       u1210 10CA                         u1130 0E7A                         u1050 0DC0  
                       u1211 10C6                         u1131 0E76                         u1051 0DBC  
                       u1300 1192                         u1220 10E2                         u1140 0E8C  
                       u1060 0DE8                         u1301 118E                         u1221 10DE  
                       u1141 0E88                         u1061 0DE4                         u1310 11B4  
                       u1230 10F2                         u1150 0EAA                         u1070 0DF8  
                       u1311 11B0                         u1231 10EE                         u1151 0EA6  
                       u1071 0DF4                         u1320 11EA                         u1240 110A  
                       u1160 0F12                         u1080 0E08                         u1321 11E6  
                       u1241 1106                         u1161 0F0E                         u1081 0E04  
                       u1330 1220                         u1250 111A                         u1170 0F3E  
                       u1090 0E24                         u1331 121C                         u1251 1116  
                       u1171 0F3A                         u1091 0E20                         u1340 1256  
                       u1260 1132                         u1180 0F98                         u1341 1252  
                       u1261 112E                         u1181 0F94                         u1350 12B0  
                       u1270 1148                         u1190 0FC6                         u1351 12AC  
                       u1271 1144                         u1191 0FC2                         u1407 0F52  
                       u1360 12C2                         u1280 115E                         u1361 12BE  
                       u1281 115A                         u1417 0F68                         u1290 117C  
                       u1427 16EA                         u1291 1178                         u1437 16F4  
                       u1447 1760                         u1457 176A                         u1467 15FA  
                       u1477 1604                         u1487 1672                         u1497 167C  
            __end_of_INT_isr 1364              __end_of_PROCESO 1914                         _main 0D5E  
                       indf2 000FDF                         fsr2l 000FD9                         btemp 0037  
                       prodh 000FF4                         prodl 000FF3                         start 000E  
                _UP_PLATFORM 18A8      __size_of_RECEIVE_STRING 0030           __size_of_INIT_LEDS 0008  
         __size_of_INIT_GPIO 000E           __size_of_INIT_UART 0012           __size_of_INIT_STEP 000E  
              __CFG_MCLRE$ON 000000               ?_DOWN_PLATFORM 0001                 ___param_bank 000000  
           __end_of_LEDS_OFF 19C6             __end_of_INIT_INT 188A           __size_of_SEND_UART 0016  
                      ?_main 0001                        _CMCON 000FB4                ?_INIT_BUTTONS 0001  
                      i2l123 1590                        i2l132 149A                        i2l125 15D0  
                      i2l141 1516                        i2l134 14DC                        i2l150 141E  
                      i2l126 15D2                        i2l135 14DE                        i2l143 1556  
                      i2l152 1460                        i2l144 1558                        i2l153 1462  
                      i2l357 1360           __size_of_TERMINADO 001A                        _RCREG 000FAE  
                      _RCSTA 000FAB                        _SPBRG 000FAF                        _PORTA 000F80  
                      _PORTB 000F81                        _PORTC 000F82                        _PORTD 000F83  
                      _PORTE 000F84                        _TXREG 000FAD                        _TXSTA 000FAC  
              ?_RECEIVE_UART 0001             __end_of_MOV_L_DC 19F6               _TERMINADO_LEDS 19AE  
           __end_of_MOV_R_DC 19AE              RECEIVE_STRING@i 000D                        tablat 000FF5  
            i2_MOV_L_PASOS_X 1464              i2_MOV_L_PASOS_Y 13E8                        ttemp5 0038  
                      ttemp6 003B                        ttemp7 003F                        status 000FD8  
                      wtemp8 0038          __size_of_ERROR_LEDS 0008                 ?_SEND_STRING 0007  
            __initialization 188A   __end_of_ERROR_FUERA_LIMITE 1962                 __end_of_main 12CA  
            i2_MOV_R_PASOS_X 155A              i2_MOV_R_PASOS_Y 14E0               ??_INIT_BUTTONS 0006  
                     ??_main 000E                __activetblptr 000001               ??_RECEIVE_UART 0006  
     __end_of_TERMINADO_LEDS 19B6                    ??_INIT_DC 0006            __end_of_INIT_LEDS 19CE  
          __end_of_INIT_GPIO 19A6            __end_of_INIT_UART 198A            __end_of_INIT_STEP 1998  
                  ??_INT_isr 0006                    ??_PROCESO 000C             i2MOV_L_PASOS_X@i 0005  
           i2MOV_L_PASOS_Y@i 0005                       _ADCON1 000FC1                       i2l2130 12DA  
                     i2l2140 1316                       i2l2132 1302                       i2l2142 132A  
                     i2l2150 1334                       i2l2134 1304                       i2l2160 135E  
                     i2l2152 1342                       i2l2144 132E                       i2l2136 1306  
                     i2l2128 12CC                       i2l2154 1356                       i2l2146 1330  
                     i2l2138 1308                       i2l2156 135A                       i2l2148 1332  
                     i2l2158 135C                       i2l1800 155A                       i2l1810 1592  
                     i2l1802 1570                       i2l1820 1464                       i2l1812 159A  
                     i2l1804 1578                       i2l1830 149C                       i2l1822 147A  
                     i2l1814 15A4                       i2l1806 157C                       i2l1832 14A4  
                     i2l1824 1482                       i2l1816 15B6                       i2l1840 14E0  
                     i2l1834 14AE                       i2l1826 1486                       i2l1818 15BA  
                     i2l1850 1518                       i2l1842 14F6                       i2l1836 14C0  
                     i2l1860 13E8                       i2l1852 1520                       i2l1844 14FE  
                     i2l1838 14C6                       i2l1870 1420                       i2l1862 13FE  
                     i2l1854 152A                       i2l1846 1502                       i2l1872 1428  
                     i2l1864 1406                       i2l1856 153C                       i2l1874 1432  
                     i2l1866 140A                       i2l1858 1540                       i2l1876 1444  
                     i2l1878 144A                       _OSCCON 000FD3            __end_of_SEND_UART 1978  
          __end_of_TERMINADO 18FA                 ?_MOV_STOP_DC 0001            ?_ERROR_NO_COMANDO 0001  
            ??_DOWN_PLATFORM 0006                       _NoNull 0031             RECEIVE_UART@Cont 0006  
         ??_ERROR_NO_COMANDO 000C                 ??_FALTA_DATO 000C                       ___wmul 1840  
                     clear_0 1890              ?_TERMINADO_LEDS 0001        __end_of_MOV_L_PASOS_X 16C4  
      __end_of_MOV_L_PASOS_Y 164C                 __mediumconst 0000                       tblptrh 000FF7  
                     tblptrl 000FF6                       tblptru 000FF8      __end_ofi2_MOV_L_PASOS_X 14E0  
    __end_ofi2_MOV_L_PASOS_Y 1464           __end_of_FALTA_DATO 192E                    ?_LEDS_OFF 0001  
                 __accesstop 0060      __end_of__initialization 1896              __CFG_PBADEN$OFF 000000  
      __end_of_MOV_R_PASOS_X 17B0        __end_of_MOV_R_PASOS_Y 173A                    ?_INIT_INT 0001  
    MOV_L_PASOS_X@coordenada 0008                ___rparam_used 000001               _RECEIVE_STRING 1810  
    MOV_R_PASOS_X@coordenada 0008      __end_ofi2_MOV_R_PASOS_X 15D4      __end_ofi2_MOV_R_PASOS_Y 155A  
             __pcstackCOMRAM 0001             i2MOV_R_PASOS_X@i 0005             i2MOV_R_PASOS_Y@i 0005  
                  ?_MOV_L_DC 0001                    ?_MOV_R_DC 0001           main@Ptrcoordenadas 0010  
               ??_ERROR_LEDS 0006              main@Instruccion 001F      MOV_L_PASOS_Y@coordenada 0008  
    MOV_R_PASOS_Y@coordenada 0008                   ??_LEDS_OFF 0006       __end_of_RECEIVE_STRING 1840  
       __end_of_INIT_BUTTONS 19DE                   ??_INIT_INT 0006           __end_of_ERROR_LEDS 19E6  
               ?_UP_PLATFORM 0001         __end_of_RECEIVE_UART 1810                ?_PROCESO_LEDS 0001  
             MOV_L_PASOS_X@i 000A               MOV_L_PASOS_Y@i 000A                      ?___wmul 0006  
                 ??_MOV_L_DC 0006                   ??_MOV_R_DC 0006         __size_of_SEND_STRING 0084  
                    _INIT_DC 19CE                  _TaskReceive 0033                      _INT_isr 0008  
                    i2u90_40 158C                      i2u90_41 1588                      i2u91_40 15B6  
                    i2u91_41 15B2                      _PROCESO 18FA                      i2u92_40 15D0  
                    i2u92_41 15CC                      i2u93_40 147A                      i2u93_41 1476  
                    i2u94_40 1496                      i2u94_41 1492                      i2u95_40 14C0  
                    i2u95_41 14BC             ?i2_MOV_L_PASOS_X 0001             ?i2_MOV_L_PASOS_Y 0001  
                    i2u96_40 14DC                      i2u96_41 14D8                      i2u89_40 1570  
                    i2u97_40 14F6                      i2u89_41 156C                      i2u97_41 14F2  
                    i2u98_40 1512                      i2u98_41 150E                      i2u99_40 153C  
                    i2u99_41 1538                      _RX_Data 0036              ?_RECEIVE_STRING 000A  
                    _AjusteZ 0032             ?i2_MOV_R_PASOS_X 0001             ?i2_MOV_R_PASOS_Y 0001  
             ??_PROCESO_LEDS 0006                      __Hparam 0000                      __Lparam 0000  
       __size_of_MOV_STOP_DC 0008             SEND_UART@TX_Data 0006              __size_of___wmul 0026  
               __psmallconst 0D00                      __pcinit 188A                      __ramtop 0D00  
                    __ptext0 0D5E                      __ptext1 1840                      __ptext2 18A8  
                    __ptext3 19A6                      __ptext4 19AE                      __ptext5 18E0  
                    __ptext6 1810                      __ptext7 17B0                      __ptext8 19B6  
                    __ptext9 18FA           _ERROR_FUERA_LIMITE 1948               MOV_R_PASOS_X@i 000A  
             MOV_R_PASOS_Y@i 000A               __pintcode_body 12CA         end_of_initialization 1896  
        ?_ERROR_FUERA_LIMITE 0001                    _INIT_LEDS 19C6                    _INIT_GPIO 1998  
                  _INIT_UART 1978                    _INIT_STEP 198A                      int_func 12CA  
                  _SEND_UART 1962                    _RCSTAbits 000FAB                    _TERMINADO 18E0  
                    postinc0 000FEE         ??_ERROR_FUERA_LIMITE 000C             ??_TERMINADO_LEDS 0006  
                  _PORTAbits 000F80                    _PORTCbits 000F82                    _PORTDbits 000F83  
                  _PORTEbits 000F84    __size_of_ERROR_NO_COMANDO 001A                    _TRISAbits 000F92  
                  _TRISBbits 000F93                    _TRISCbits 000F94                    _TRISDbits 000F95  
                  _TRISEbits 000F96        __size_of_INIT_BUTTONS 0008                   ?_INIT_LEDS 0001  
                 ?_INIT_GPIO 0001                   ?_INIT_UART 0001                   ?_INIT_STEP 0001  
      __size_of_RECEIVE_UART 0060                    _TXSTAbits 000FAC            __size_of_LEDS_OFF 0008  
          __size_of_INIT_INT 0024                   ?_SEND_UART 0001        __end_of_DOWN_PLATFORM 18E0  
       __size_of_UP_PLATFORM 001C                   ?_TERMINADO 0001    RECEIVE_STRING@guardarscan 000A  
             __end_of___wmul 1866            __size_of_MOV_L_DC 0008            __size_of_MOV_R_DC 0008  
               _INIT_BUTTONS 19D6          start_initialization 188A                 _RECEIVE_UART 17B0  
       __end_of_PROCESO_LEDS 19BE             __CFG_OSC$IRCIO67 000000       __size_of_MOV_L_PASOS_X 0078  
     __size_of_MOV_L_PASOS_Y 0078                 SEND_STRING@i 000B                     ??___wmul 000A  
                  _PosicionX 0027                    _PosicionY 0025    i2MOV_L_PASOS_X@coordenada 0003  
  i2MOV_R_PASOS_X@coordenada 0003       __size_of_MOV_R_PASOS_X 0076       __size_of_MOV_R_PASOS_Y 0076  
                   ?_INIT_DC 0001                  __pbssCOMRAM 0025                     ?_INT_isr 0001  
                   ?_PROCESO 0001             ??_RECEIVE_STRING 000D                  ??_INIT_LEDS 0006  
                ??_INIT_GPIO 0006                  ??_INIT_UART 0006                  ??_INIT_STEP 0006  
  i2MOV_L_PASOS_Y@coordenada 0003    i2MOV_R_PASOS_Y@coordenada 0003                ??_SEND_STRING 0009  
                ??_SEND_UART 0006                    __pintcode 0008                  ??_TERMINADO 000C  
           _ERROR_NO_COMANDO 192E                  __smallconst 0D00                _MOV_L_PASOS_X 164C  
              _MOV_L_PASOS_Y 15D4                     _LEDS_OFF 19BE  RECEIVE_STRING@numcaracteres 000C  
             ___wmul@product 000A                     _LATBbits 000F8A                     _LATDbits 000F8C  
   __size_ofi2_MOV_L_PASOS_X 007C     __size_ofi2_MOV_L_PASOS_Y 007C                     _INIT_INT 1866  
              _MOV_R_PASOS_X 173A                _MOV_R_PASOS_Y 16C4                ??_MOV_STOP_DC 0006  
                   i2u100_40 1556                     i2u100_41 1552                     i2u101_40 13FE  
                   i2u101_41 13FA                     i2u102_40 141A                     i2u102_41 1416  
                   i2u103_40 1444                     i2u103_41 1440                     i2u104_40 1460  
                   i2u104_41 145C                     i2u150_47 151A                     i2u151_47 1524  
                   i2u152_47 1594                     i2u137_40 12DA                     i2u137_41 12D6  
                   i2u153_47 159E                     i2u138_40 1316                     i2u138_41 1312  
                   i2u154_47 1422                     i2u139_40 1342                     i2u139_41 133E  
                   i2u155_47 142C                     i2u156_47 149E                     i2u157_47 14A8  
                   _PIR1bits 000F9E                     _RCONbits 000FD0       SEND_STRING@PointString 0007  
                   _MOV_L_DC 19EE                     _MOV_R_DC 19A6     __size_ofi2_MOV_R_PASOS_X 007A  
   __size_ofi2_MOV_R_PASOS_Y 007A          __end_of_SEND_STRING 13E8        __size_of_PROCESO_LEDS 0008  
          ___wmul@multiplier 0006               ?_MOV_L_PASOS_X 0006               ?_MOV_L_PASOS_Y 0006  
           __size_of_INIT_DC 0008             __size_of_INT_isr 135C             __size_of_PROCESO 001A  
                _INTCON2bits 000FF1                  _INTCON3bits 000FF0                     _XReceive 002B  
                   _YReceive 0029               ?_MOV_R_PASOS_X 0006               ?_MOV_R_PASOS_Y 0006  
                   __Hrparam 0000                     __Lrparam 0000                 _PROCESO_LEDS 19B6  
               __Lsmallconst 0D00                   _FALTA_DATO 1914          __end_of_MOV_STOP_DC 19EE  
__size_of_ERROR_FUERA_LIMITE 001A                     __ptext10 16C4                     __ptext11 173A  
                   __ptext20 19CE                     __ptext12 15D4                     __ptext21 19D6  
                   __ptext13 164C                     __ptext30 19EE                     __ptext22 1914  
                   __ptext14 19BE                     __ptext23 192E                     __ptext15 1978  
                   __ptext32 14E0                     __ptext24 19DE                     __ptext16 198A  
                   __ptext33 155A                     __ptext25 1948                     __ptext17 19C6  
                   __ptext34 13E8                     __ptext26 1364                     __ptext18 1866  
                   __ptext35 1464                     __ptext27 1962                     __ptext19 1998  
                   __ptext28 18C4                     __ptext29 19E6        MOV_L_PASOS_X@posicion 0006  
      MOV_R_PASOS_X@posicion 0006        MOV_L_PASOS_Y@posicion 0006        MOV_R_PASOS_Y@posicion 0006  
              __size_of_main 056C                ??_UP_PLATFORM 0006                  _SEND_STRING 1364  
                 _CVRCONbits 000FB5                     int$flags 0037            ??i2_MOV_L_PASOS_X 0005  
          ??i2_MOV_L_PASOS_Y 0005                     main@Task 001E                   _ERROR_LEDS 19DE  
            ??_MOV_L_PASOS_X 000A              ??_MOV_L_PASOS_Y 000A                   _INTCONbits 000FF2  
          ??i2_MOV_R_PASOS_X 0005            ??i2_MOV_R_PASOS_Y 0005      __size_of_TERMINADO_LEDS 0008  
     __size_of_DOWN_PLATFORM 001C                     intlevel2 0000              ??_MOV_R_PASOS_X 000A  
            ??_MOV_R_PASOS_Y 000A     __end_of_ERROR_NO_COMANDO 1948                  _MOV_STOP_DC 19E6  
              _BuscandoHomeX 0035                _BuscandoHomeY 0034                  ?_FALTA_DATO 0001  
        __end_of_UP_PLATFORM 18C4  
